ARM GAS  C:\Users\TRIPHE~1\AppData\Local\Temp\cctub8xY.s 			page 1


   1              		.syntax unified
   2              		.cpu cortex-m3
   3              		.fpu softvfp
   4              		.eabi_attribute 20, 1
   5              		.eabi_attribute 21, 1
   6              		.eabi_attribute 23, 3
   7              		.eabi_attribute 24, 1
   8              		.eabi_attribute 25, 1
   9              		.eabi_attribute 26, 1
  10              		.eabi_attribute 30, 1
  11              		.eabi_attribute 34, 1
  12              		.eabi_attribute 18, 4
  13              		.thumb
  14              		.file	"Beep.c"
  15              		.text
  16              	.Ltext0:
  17              		.cfi_sections	.debug_frame
  18              		.section	.text.Beep,"ax",%progbits
  19              		.align	2
  20              		.global	Beep
  21              		.thumb
  22              		.thumb_func
  23              		.type	Beep, %function
  24              	Beep:
  25              	.LFB63:
  26              		.file 1 "ZumoLibrary\\Beep.c"
   1:ZumoLibrary/Beep.c **** /* ========================================
   2:ZumoLibrary/Beep.c ****  *
   3:ZumoLibrary/Beep.c ****  * Copyright YOUR COMPANY, THE YEAR
   4:ZumoLibrary/Beep.c ****  * All Rights Reserved
   5:ZumoLibrary/Beep.c ****  * UNPUBLISHED, LICENSED SOFTWARE.
   6:ZumoLibrary/Beep.c ****  *
   7:ZumoLibrary/Beep.c ****  * CONFIDENTIAL AND PROPRIETARY INFORMATION
   8:ZumoLibrary/Beep.c ****  * WHICH IS THE PROPERTY OF your company.
   9:ZumoLibrary/Beep.c ****  *
  10:ZumoLibrary/Beep.c ****  * ========================================
  11:ZumoLibrary/Beep.c **** */
  12:ZumoLibrary/Beep.c **** #include <project.h>
  13:ZumoLibrary/Beep.c **** #include "Beep.h"
  14:ZumoLibrary/Beep.c **** int qua = 150;
  15:ZumoLibrary/Beep.c **** uint8 a[] = {0,0,0,0,251,224,199};
  16:ZumoLibrary/Beep.c **** uint8 b[] = {188,167,149,141,125,111,99};
  17:ZumoLibrary/Beep.c **** uint8 c[] = {93,83,74,70,62,55,49};
  18:ZumoLibrary/Beep.c **** 
  19:ZumoLibrary/Beep.c **** void Beep(uint32 length, uint8 pitch)
  20:ZumoLibrary/Beep.c **** {
  27              		.loc 1 20 0
  28              		.cfi_startproc
  29              		@ args = 0, pretend = 0, frame = 0
  30              		@ frame_needed = 0, uses_anonymous_args = 0
  31              	.LVL0:
  32 0000 70B5     		push	{r4, r5, r6, lr}
  33              		.cfi_def_cfa_offset 16
  34              		.cfi_offset 4, -16
  35              		.cfi_offset 5, -12
  36              		.cfi_offset 6, -8
  37              		.cfi_offset 14, -4
ARM GAS  C:\Users\TRIPHE~1\AppData\Local\Temp\cctub8xY.s 			page 2


  38 0002 0546     		mov	r5, r0
  39 0004 0C46     		mov	r4, r1
  21:ZumoLibrary/Beep.c ****     uint8 cmp = pitch / 2;
  40              		.loc 1 21 0
  41 0006 4E08     		lsrs	r6, r1, #1
  42              	.LVL1:
  22:ZumoLibrary/Beep.c ****     Buzzer_PWM_Start();
  43              		.loc 1 22 0
  44 0008 FFF7FEFF 		bl	Buzzer_PWM_Start
  45              	.LVL2:
  23:ZumoLibrary/Beep.c ****     Buzzer_PWM_WriteCompare(cmp);
  46              		.loc 1 23 0
  47 000c 3046     		mov	r0, r6
  48 000e FFF7FEFF 		bl	Buzzer_PWM_WriteCompare
  49              	.LVL3:
  24:ZumoLibrary/Beep.c ****     Buzzer_PWM_WritePeriod(pitch);
  50              		.loc 1 24 0
  51 0012 2046     		mov	r0, r4
  52 0014 FFF7FEFF 		bl	Buzzer_PWM_WritePeriod
  53              	.LVL4:
  25:ZumoLibrary/Beep.c ****     CyDelay(length);
  54              		.loc 1 25 0
  55 0018 2846     		mov	r0, r5
  56 001a FFF7FEFF 		bl	CyDelay
  57              	.LVL5:
  26:ZumoLibrary/Beep.c ****     Buzzer_PWM_Stop();
  58              		.loc 1 26 0
  59 001e FFF7FEFF 		bl	Buzzer_PWM_Stop
  60              	.LVL6:
  61 0022 70BD     		pop	{r4, r5, r6, pc}
  62              		.cfi_endproc
  63              	.LFE63:
  64              		.size	Beep, .-Beep
  65              		.section	.text.Beep_black,"ax",%progbits
  66              		.align	2
  67              		.global	Beep_black
  68              		.thumb
  69              		.thumb_func
  70              		.type	Beep_black, %function
  71              	Beep_black:
  72              	.LFB64:
  27:ZumoLibrary/Beep.c **** }
  28:ZumoLibrary/Beep.c **** 
  29:ZumoLibrary/Beep.c **** void Beep_black(uint8 pitch) {
  73              		.loc 1 29 0
  74              		.cfi_startproc
  75              		@ args = 0, pretend = 0, frame = 0
  76              		@ frame_needed = 0, uses_anonymous_args = 0
  77              	.LVL7:
  78 0000 08B5     		push	{r3, lr}
  79              		.cfi_def_cfa_offset 8
  80              		.cfi_offset 3, -8
  81              		.cfi_offset 14, -4
  82 0002 0146     		mov	r1, r0
  30:ZumoLibrary/Beep.c ****     Beep(qua - 10, pitch);
  83              		.loc 1 30 0
  84 0004 044B     		ldr	r3, .L5
ARM GAS  C:\Users\TRIPHE~1\AppData\Local\Temp\cctub8xY.s 			page 3


  85 0006 1868     		ldr	r0, [r3]
  86              	.LVL8:
  87 0008 0A38     		subs	r0, r0, #10
  88 000a FFF7FEFF 		bl	Beep
  89              	.LVL9:
  31:ZumoLibrary/Beep.c ****     CyDelay(10);
  90              		.loc 1 31 0
  91 000e 0A20     		movs	r0, #10
  92 0010 FFF7FEFF 		bl	CyDelay
  93              	.LVL10:
  94 0014 08BD     		pop	{r3, pc}
  95              	.L6:
  96 0016 00BF     		.align	2
  97              	.L5:
  98 0018 00000000 		.word	.LANCHOR0
  99              		.cfi_endproc
 100              	.LFE64:
 101              		.size	Beep_black, .-Beep_black
 102              		.section	.text.Beep_white,"ax",%progbits
 103              		.align	2
 104              		.global	Beep_white
 105              		.thumb
 106              		.thumb_func
 107              		.type	Beep_white, %function
 108              	Beep_white:
 109              	.LFB65:
  32:ZumoLibrary/Beep.c **** }
  33:ZumoLibrary/Beep.c **** 
  34:ZumoLibrary/Beep.c **** void Beep_white(uint8 pitch) {
 110              		.loc 1 34 0
 111              		.cfi_startproc
 112              		@ args = 0, pretend = 0, frame = 0
 113              		@ frame_needed = 0, uses_anonymous_args = 0
 114              	.LVL11:
 115 0000 08B5     		push	{r3, lr}
 116              		.cfi_def_cfa_offset 8
 117              		.cfi_offset 3, -8
 118              		.cfi_offset 14, -4
 119 0002 0146     		mov	r1, r0
  35:ZumoLibrary/Beep.c ****     Beep (qua * 2 - 10, pitch);
 120              		.loc 1 35 0
 121 0004 044B     		ldr	r3, .L9
 122 0006 1868     		ldr	r0, [r3]
 123              	.LVL12:
 124 0008 0538     		subs	r0, r0, #5
 125 000a 4000     		lsls	r0, r0, #1
 126 000c FFF7FEFF 		bl	Beep
 127              	.LVL13:
  36:ZumoLibrary/Beep.c ****     CyDelay(10);
 128              		.loc 1 36 0
 129 0010 0A20     		movs	r0, #10
 130 0012 FFF7FEFF 		bl	CyDelay
 131              	.LVL14:
 132 0016 08BD     		pop	{r3, pc}
 133              	.L10:
 134              		.align	2
 135              	.L9:
ARM GAS  C:\Users\TRIPHE~1\AppData\Local\Temp\cctub8xY.s 			page 4


 136 0018 00000000 		.word	.LANCHOR0
 137              		.cfi_endproc
 138              	.LFE65:
 139              		.size	Beep_white, .-Beep_white
 140              		.section	.text.Beep_half,"ax",%progbits
 141              		.align	2
 142              		.global	Beep_half
 143              		.thumb
 144              		.thumb_func
 145              		.type	Beep_half, %function
 146              	Beep_half:
 147              	.LFB66:
  37:ZumoLibrary/Beep.c **** }
  38:ZumoLibrary/Beep.c **** 
  39:ZumoLibrary/Beep.c **** void Beep_half(uint8 pitch) {
 148              		.loc 1 39 0
 149              		.cfi_startproc
 150              		@ args = 0, pretend = 0, frame = 0
 151              		@ frame_needed = 0, uses_anonymous_args = 0
 152              	.LVL15:
 153 0000 08B5     		push	{r3, lr}
 154              		.cfi_def_cfa_offset 8
 155              		.cfi_offset 3, -8
 156              		.cfi_offset 14, -4
 157 0002 0146     		mov	r1, r0
  40:ZumoLibrary/Beep.c ****     Beep (qua/2-10, pitch);
 158              		.loc 1 40 0
 159 0004 054B     		ldr	r3, .L13
 160 0006 1868     		ldr	r0, [r3]
 161              	.LVL16:
 162 0008 00EBD070 		add	r0, r0, r0, lsr #31
 163 000c 4010     		asrs	r0, r0, #1
 164 000e 0A38     		subs	r0, r0, #10
 165 0010 FFF7FEFF 		bl	Beep
 166              	.LVL17:
  41:ZumoLibrary/Beep.c ****     CyDelay(10);
 167              		.loc 1 41 0
 168 0014 0A20     		movs	r0, #10
 169 0016 FFF7FEFF 		bl	CyDelay
 170              	.LVL18:
 171 001a 08BD     		pop	{r3, pc}
 172              	.L14:
 173              		.align	2
 174              	.L13:
 175 001c 00000000 		.word	.LANCHOR0
 176              		.cfi_endproc
 177              	.LFE66:
 178              		.size	Beep_half, .-Beep_half
 179              		.section	.text.Beep_third,"ax",%progbits
 180              		.align	2
 181              		.global	Beep_third
 182              		.thumb
 183              		.thumb_func
 184              		.type	Beep_third, %function
 185              	Beep_third:
 186              	.LFB67:
  42:ZumoLibrary/Beep.c **** }
ARM GAS  C:\Users\TRIPHE~1\AppData\Local\Temp\cctub8xY.s 			page 5


  43:ZumoLibrary/Beep.c **** 
  44:ZumoLibrary/Beep.c **** void Beep_third(uint8 pitch) {
 187              		.loc 1 44 0
 188              		.cfi_startproc
 189              		@ args = 0, pretend = 0, frame = 0
 190              		@ frame_needed = 0, uses_anonymous_args = 0
 191              	.LVL19:
 192 0000 08B5     		push	{r3, lr}
 193              		.cfi_def_cfa_offset 8
 194              		.cfi_offset 3, -8
 195              		.cfi_offset 14, -4
 196 0002 0146     		mov	r1, r0
  45:ZumoLibrary/Beep.c ****     Beep (qua*2/3-10, pitch);
 197              		.loc 1 45 0
 198 0004 074B     		ldr	r3, .L17
 199 0006 1868     		ldr	r0, [r3]
 200              	.LVL20:
 201 0008 4000     		lsls	r0, r0, #1
 202 000a 074B     		ldr	r3, .L17+4
 203 000c 83FB0023 		smull	r2, r3, r3, r0
 204 0010 A3EBE070 		sub	r0, r3, r0, asr #31
 205 0014 0A38     		subs	r0, r0, #10
 206 0016 FFF7FEFF 		bl	Beep
 207              	.LVL21:
  46:ZumoLibrary/Beep.c ****     CyDelay(10);
 208              		.loc 1 46 0
 209 001a 0A20     		movs	r0, #10
 210 001c FFF7FEFF 		bl	CyDelay
 211              	.LVL22:
 212 0020 08BD     		pop	{r3, pc}
 213              	.L18:
 214 0022 00BF     		.align	2
 215              	.L17:
 216 0024 00000000 		.word	.LANCHOR0
 217 0028 56555555 		.word	1431655766
 218              		.cfi_endproc
 219              	.LFE67:
 220              		.size	Beep_third, .-Beep_third
 221              		.section	.text.Beep_whole,"ax",%progbits
 222              		.align	2
 223              		.global	Beep_whole
 224              		.thumb
 225              		.thumb_func
 226              		.type	Beep_whole, %function
 227              	Beep_whole:
 228              	.LFB68:
  47:ZumoLibrary/Beep.c **** }
  48:ZumoLibrary/Beep.c **** 
  49:ZumoLibrary/Beep.c **** void Beep_whole(uint8 pitch) {
 229              		.loc 1 49 0
 230              		.cfi_startproc
 231              		@ args = 0, pretend = 0, frame = 0
 232              		@ frame_needed = 0, uses_anonymous_args = 0
 233              	.LVL23:
 234 0000 08B5     		push	{r3, lr}
 235              		.cfi_def_cfa_offset 8
 236              		.cfi_offset 3, -8
ARM GAS  C:\Users\TRIPHE~1\AppData\Local\Temp\cctub8xY.s 			page 6


 237              		.cfi_offset 14, -4
 238 0002 0146     		mov	r1, r0
  50:ZumoLibrary/Beep.c ****     Beep (qua*4-10, pitch);
 239              		.loc 1 50 0
 240 0004 044B     		ldr	r3, .L21
 241 0006 1868     		ldr	r0, [r3]
 242              	.LVL24:
 243 0008 8000     		lsls	r0, r0, #2
 244 000a 0A38     		subs	r0, r0, #10
 245 000c FFF7FEFF 		bl	Beep
 246              	.LVL25:
  51:ZumoLibrary/Beep.c ****     CyDelay(10);
 247              		.loc 1 51 0
 248 0010 0A20     		movs	r0, #10
 249 0012 FFF7FEFF 		bl	CyDelay
 250              	.LVL26:
 251 0016 08BD     		pop	{r3, pc}
 252              	.L22:
 253              		.align	2
 254              	.L21:
 255 0018 00000000 		.word	.LANCHOR0
 256              		.cfi_endproc
 257              	.LFE68:
 258              		.size	Beep_whole, .-Beep_whole
 259              		.section	.text.Beep_a,"ax",%progbits
 260              		.align	2
 261              		.global	Beep_a
 262              		.thumb
 263              		.thumb_func
 264              		.type	Beep_a, %function
 265              	Beep_a:
 266              	.LFB69:
  52:ZumoLibrary/Beep.c **** }
  53:ZumoLibrary/Beep.c **** 
  54:ZumoLibrary/Beep.c **** void Beep_a(uint8 pitch) {
 267              		.loc 1 54 0
 268              		.cfi_startproc
 269              		@ args = 0, pretend = 0, frame = 0
 270              		@ frame_needed = 0, uses_anonymous_args = 0
 271              	.LVL27:
 272 0000 08B5     		push	{r3, lr}
 273              		.cfi_def_cfa_offset 8
 274              		.cfi_offset 3, -8
 275              		.cfi_offset 14, -4
 276 0002 0146     		mov	r1, r0
  55:ZumoLibrary/Beep.c ****     Beep (qua*4/3-10, pitch);
 277              		.loc 1 55 0
 278 0004 074B     		ldr	r3, .L25
 279 0006 1868     		ldr	r0, [r3]
 280              	.LVL28:
 281 0008 8000     		lsls	r0, r0, #2
 282 000a 074B     		ldr	r3, .L25+4
 283 000c 83FB0023 		smull	r2, r3, r3, r0
 284 0010 A3EBE070 		sub	r0, r3, r0, asr #31
 285 0014 0A38     		subs	r0, r0, #10
 286 0016 FFF7FEFF 		bl	Beep
 287              	.LVL29:
ARM GAS  C:\Users\TRIPHE~1\AppData\Local\Temp\cctub8xY.s 			page 7


  56:ZumoLibrary/Beep.c ****     CyDelay(10);
 288              		.loc 1 56 0
 289 001a 0A20     		movs	r0, #10
 290 001c FFF7FEFF 		bl	CyDelay
 291              	.LVL30:
 292 0020 08BD     		pop	{r3, pc}
 293              	.L26:
 294 0022 00BF     		.align	2
 295              	.L25:
 296 0024 00000000 		.word	.LANCHOR0
 297 0028 56555555 		.word	1431655766
 298              		.cfi_endproc
 299              	.LFE69:
 300              		.size	Beep_a, .-Beep_a
 301              		.section	.text.Beep_fourth,"ax",%progbits
 302              		.align	2
 303              		.global	Beep_fourth
 304              		.thumb
 305              		.thumb_func
 306              		.type	Beep_fourth, %function
 307              	Beep_fourth:
 308              	.LFB70:
  57:ZumoLibrary/Beep.c **** }
  58:ZumoLibrary/Beep.c **** 
  59:ZumoLibrary/Beep.c **** void Beep_fourth(uint8 pitch) {
 309              		.loc 1 59 0
 310              		.cfi_startproc
 311              		@ args = 0, pretend = 0, frame = 0
 312              		@ frame_needed = 0, uses_anonymous_args = 0
 313              	.LVL31:
 314 0000 08B5     		push	{r3, lr}
 315              		.cfi_def_cfa_offset 8
 316              		.cfi_offset 3, -8
 317              		.cfi_offset 14, -4
 318 0002 0146     		mov	r1, r0
  60:ZumoLibrary/Beep.c ****     Beep (qua/4-10, pitch);
 319              		.loc 1 60 0
 320 0004 064B     		ldr	r3, .L30
 321 0006 1868     		ldr	r0, [r3]
 322              	.LVL32:
 323 0008 0028     		cmp	r0, #0
 324 000a 00DA     		bge	.L28
 325 000c 0330     		adds	r0, r0, #3
 326              	.L28:
 327 000e 8010     		asrs	r0, r0, #2
 328 0010 0A38     		subs	r0, r0, #10
 329 0012 FFF7FEFF 		bl	Beep
 330              	.LVL33:
  61:ZumoLibrary/Beep.c ****     CyDelay(10);
 331              		.loc 1 61 0
 332 0016 0A20     		movs	r0, #10
 333 0018 FFF7FEFF 		bl	CyDelay
 334              	.LVL34:
 335 001c 08BD     		pop	{r3, pc}
 336              	.L31:
 337 001e 00BF     		.align	2
 338              	.L30:
ARM GAS  C:\Users\TRIPHE~1\AppData\Local\Temp\cctub8xY.s 			page 8


 339 0020 00000000 		.word	.LANCHOR0
 340              		.cfi_endproc
 341              	.LFE70:
 342              		.size	Beep_fourth, .-Beep_fourth
 343              		.section	.text.Mario_Victory,"ax",%progbits
 344              		.align	2
 345              		.global	Mario_Victory
 346              		.thumb
 347              		.thumb_func
 348              		.type	Mario_Victory, %function
 349              	Mario_Victory:
 350              	.LFB71:
  62:ZumoLibrary/Beep.c **** }
  63:ZumoLibrary/Beep.c **** 
  64:ZumoLibrary/Beep.c **** void Mario_Victory() {
 351              		.loc 1 64 0
 352              		.cfi_startproc
 353              		@ args = 0, pretend = 0, frame = 0
 354              		@ frame_needed = 0, uses_anonymous_args = 0
 355 0000 10B5     		push	{r4, lr}
 356              		.cfi_def_cfa_offset 8
 357              		.cfi_offset 4, -8
 358              		.cfi_offset 14, -4
  65:ZumoLibrary/Beep.c ****     qua = 200;
 359              		.loc 1 65 0
 360 0002 2A4C     		ldr	r4, .L34
 361 0004 C823     		movs	r3, #200
 362 0006 2360     		str	r3, [r4]
  66:ZumoLibrary/Beep.c ****     Beep_third(a[4]); Beep_third(b[0]); Beep_third(b[2]); Beep_third(b[4]); Beep_third(c[0]); Beep_
 363              		.loc 1 66 0
 364 0008 207A     		ldrb	r0, [r4, #8]	@ zero_extendqisi2
 365 000a FFF7FEFF 		bl	Beep_third
 366              	.LVL35:
 367 000e 207B     		ldrb	r0, [r4, #12]	@ zero_extendqisi2
 368 0010 FFF7FEFF 		bl	Beep_third
 369              	.LVL36:
 370 0014 A07B     		ldrb	r0, [r4, #14]	@ zero_extendqisi2
 371 0016 FFF7FEFF 		bl	Beep_third
 372              	.LVL37:
 373 001a 207C     		ldrb	r0, [r4, #16]	@ zero_extendqisi2
 374 001c FFF7FEFF 		bl	Beep_third
 375              	.LVL38:
 376 0020 207D     		ldrb	r0, [r4, #20]	@ zero_extendqisi2
 377 0022 FFF7FEFF 		bl	Beep_third
 378              	.LVL39:
 379 0026 A07D     		ldrb	r0, [r4, #22]	@ zero_extendqisi2
 380 0028 FFF7FEFF 		bl	Beep_third
 381              	.LVL40:
 382 002c 207E     		ldrb	r0, [r4, #24]	@ zero_extendqisi2
 383 002e FFF7FEFF 		bl	Beep_white
 384              	.LVL41:
 385 0032 A07D     		ldrb	r0, [r4, #22]	@ zero_extendqisi2
 386 0034 FFF7FEFF 		bl	Beep_white
 387              	.LVL42:
  67:ZumoLibrary/Beep.c ****     Beep_third(237); Beep_third(b[0]); Beep_third(158); Beep_third(118); Beep_third(c[0]); Beep_thi
 388              		.loc 1 67 0
 389 0038 ED20     		movs	r0, #237
ARM GAS  C:\Users\TRIPHE~1\AppData\Local\Temp\cctub8xY.s 			page 9


 390 003a FFF7FEFF 		bl	Beep_third
 391              	.LVL43:
 392 003e 207B     		ldrb	r0, [r4, #12]	@ zero_extendqisi2
 393 0040 FFF7FEFF 		bl	Beep_third
 394              	.LVL44:
 395 0044 9E20     		movs	r0, #158
 396 0046 FFF7FEFF 		bl	Beep_third
 397              	.LVL45:
 398 004a 7620     		movs	r0, #118
 399 004c FFF7FEFF 		bl	Beep_third
 400              	.LVL46:
 401 0050 207D     		ldrb	r0, [r4, #20]	@ zero_extendqisi2
 402 0052 FFF7FEFF 		bl	Beep_third
 403              	.LVL47:
 404 0056 4E20     		movs	r0, #78
 405 0058 FFF7FEFF 		bl	Beep_third
 406              	.LVL48:
 407 005c 3B20     		movs	r0, #59
 408 005e FFF7FEFF 		bl	Beep_white
 409              	.LVL49:
 410 0062 4E20     		movs	r0, #78
 411 0064 FFF7FEFF 		bl	Beep_white
 412              	.LVL50:
  68:ZumoLibrary/Beep.c ****     Beep_third(211); Beep_third(b[1]); Beep_third(b[3]); Beep_third(105); Beep_third(c[1]); Beep_th
 413              		.loc 1 68 0
 414 0068 D320     		movs	r0, #211
 415 006a FFF7FEFF 		bl	Beep_third
 416              	.LVL51:
 417 006e 607B     		ldrb	r0, [r4, #13]	@ zero_extendqisi2
 418 0070 FFF7FEFF 		bl	Beep_third
 419              	.LVL52:
 420 0074 E07B     		ldrb	r0, [r4, #15]	@ zero_extendqisi2
 421 0076 FFF7FEFF 		bl	Beep_third
 422              	.LVL53:
 423 007a 6920     		movs	r0, #105
 424 007c FFF7FEFF 		bl	Beep_third
 425              	.LVL54:
 426 0080 607D     		ldrb	r0, [r4, #21]	@ zero_extendqisi2
 427 0082 FFF7FEFF 		bl	Beep_third
 428              	.LVL55:
 429 0086 E07D     		ldrb	r0, [r4, #23]	@ zero_extendqisi2
 430 0088 FFF7FEFF 		bl	Beep_third
 431              	.LVL56:
 432 008c 3420     		movs	r0, #52
 433 008e FFF7FEFF 		bl	Beep_white
 434              	.LVL57:
 435 0092 3420     		movs	r0, #52
 436 0094 FFF7FEFF 		bl	Beep_third
 437              	.LVL58:
 438 0098 3420     		movs	r0, #52
 439 009a FFF7FEFF 		bl	Beep_third
 440              	.LVL59:
 441 009e 3420     		movs	r0, #52
 442 00a0 FFF7FEFF 		bl	Beep_third
 443              	.LVL60:
 444 00a4 2E20     		movs	r0, #46
 445 00a6 FFF7FEFF 		bl	Beep_whole
ARM GAS  C:\Users\TRIPHE~1\AppData\Local\Temp\cctub8xY.s 			page 10


 446              	.LVL61:
 447 00aa 10BD     		pop	{r4, pc}
 448              	.L35:
 449              		.align	2
 450              	.L34:
 451 00ac 00000000 		.word	.LANCHOR0
 452              		.cfi_endproc
 453              	.LFE71:
 454              		.size	Mario_Victory, .-Mario_Victory
 455              		.section	.text.Mario_Death,"ax",%progbits
 456              		.align	2
 457              		.global	Mario_Death
 458              		.thumb
 459              		.thumb_func
 460              		.type	Mario_Death, %function
 461              	Mario_Death:
 462              	.LFB72:
  69:ZumoLibrary/Beep.c **** }
  70:ZumoLibrary/Beep.c **** 
  71:ZumoLibrary/Beep.c **** void Mario_Death() {
 463              		.loc 1 71 0
 464              		.cfi_startproc
 465              		@ args = 0, pretend = 0, frame = 0
 466              		@ frame_needed = 0, uses_anonymous_args = 0
 467 0000 10B5     		push	{r4, lr}
 468              		.cfi_def_cfa_offset 8
 469              		.cfi_offset 4, -8
 470              		.cfi_offset 14, -4
  72:ZumoLibrary/Beep.c ****     qua = 150;
 471              		.loc 1 72 0
 472 0002 144C     		ldr	r4, .L38
 473 0004 9623     		movs	r3, #150
 474 0006 2360     		str	r3, [r4]
  73:ZumoLibrary/Beep.c ****     Beep_black(b[6]); Beep_black(c[3]); CyDelay(250); Beep_black(c[3]);
 475              		.loc 1 73 0
 476 0008 A07C     		ldrb	r0, [r4, #18]	@ zero_extendqisi2
 477 000a FFF7FEFF 		bl	Beep_black
 478              	.LVL62:
 479 000e E07D     		ldrb	r0, [r4, #23]	@ zero_extendqisi2
 480 0010 FFF7FEFF 		bl	Beep_black
 481              	.LVL63:
 482 0014 FA20     		movs	r0, #250
 483 0016 FFF7FEFF 		bl	CyDelay
 484              	.LVL64:
 485 001a E07D     		ldrb	r0, [r4, #23]	@ zero_extendqisi2
 486 001c FFF7FEFF 		bl	Beep_black
 487              	.LVL65:
  74:ZumoLibrary/Beep.c ****     Beep_a(c[3]); Beep_a(c[2]); Beep_a(c[1]);
 488              		.loc 1 74 0
 489 0020 E07D     		ldrb	r0, [r4, #23]	@ zero_extendqisi2
 490 0022 FFF7FEFF 		bl	Beep_a
 491              	.LVL66:
 492 0026 A07D     		ldrb	r0, [r4, #22]	@ zero_extendqisi2
 493 0028 FFF7FEFF 		bl	Beep_a
 494              	.LVL67:
 495 002c 607D     		ldrb	r0, [r4, #21]	@ zero_extendqisi2
 496 002e FFF7FEFF 		bl	Beep_a
ARM GAS  C:\Users\TRIPHE~1\AppData\Local\Temp\cctub8xY.s 			page 11


 497              	.LVL68:
  75:ZumoLibrary/Beep.c ****     Beep_black(c[0]); Beep_black(b[2]); Beep_black(c[2]); Beep_black(b[2]);
 498              		.loc 1 75 0
 499 0032 207D     		ldrb	r0, [r4, #20]	@ zero_extendqisi2
 500 0034 FFF7FEFF 		bl	Beep_black
 501              	.LVL69:
 502 0038 A07B     		ldrb	r0, [r4, #14]	@ zero_extendqisi2
 503 003a FFF7FEFF 		bl	Beep_black
 504              	.LVL70:
 505 003e A07D     		ldrb	r0, [r4, #22]	@ zero_extendqisi2
 506 0040 FFF7FEFF 		bl	Beep_black
 507              	.LVL71:
 508 0044 A07B     		ldrb	r0, [r4, #14]	@ zero_extendqisi2
 509 0046 FFF7FEFF 		bl	Beep_black
 510              	.LVL72:
  76:ZumoLibrary/Beep.c ****     Beep_black(b[0]);
 511              		.loc 1 76 0
 512 004a 207B     		ldrb	r0, [r4, #12]	@ zero_extendqisi2
 513 004c FFF7FEFF 		bl	Beep_black
 514              	.LVL73:
 515 0050 10BD     		pop	{r4, pc}
 516              	.L39:
 517 0052 00BF     		.align	2
 518              	.L38:
 519 0054 00000000 		.word	.LANCHOR0
 520              		.cfi_endproc
 521              	.LFE72:
 522              		.size	Mario_Death, .-Mario_Death
 523              		.global	__aeabi_i2d
 524              		.global	__aeabi_dmul
 525              		.global	__aeabi_dsub
 526              		.global	__aeabi_d2uiz
 527              		.section	.text.kissTheRain,"ax",%progbits
 528              		.align	2
 529              		.global	kissTheRain
 530              		.thumb
 531              		.thumb_func
 532              		.type	kissTheRain, %function
 533              	kissTheRain:
 534              	.LFB73:
  77:ZumoLibrary/Beep.c **** }
  78:ZumoLibrary/Beep.c **** 
  79:ZumoLibrary/Beep.c **** void kissTheRain() {
 535              		.loc 1 79 0
 536              		.cfi_startproc
 537              		@ args = 0, pretend = 0, frame = 0
 538              		@ frame_needed = 0, uses_anonymous_args = 0
 539 0000 10B5     		push	{r4, lr}
 540              		.cfi_def_cfa_offset 8
 541              		.cfi_offset 4, -8
 542              		.cfi_offset 14, -4
  80:ZumoLibrary/Beep.c ****     qua = 640;
 543              		.loc 1 80 0
 544 0002 6F4C     		ldr	r4, .L42
 545 0004 4FF42073 		mov	r3, #640
 546 0008 2360     		str	r3, [r4]
  81:ZumoLibrary/Beep.c ****     Beep_fourth(a[4]); Beep_fourth(b[0]); Beep_fourth(b[1]);
ARM GAS  C:\Users\TRIPHE~1\AppData\Local\Temp\cctub8xY.s 			page 12


 547              		.loc 1 81 0
 548 000a 207A     		ldrb	r0, [r4, #8]	@ zero_extendqisi2
 549 000c FFF7FEFF 		bl	Beep_fourth
 550              	.LVL74:
 551 0010 207B     		ldrb	r0, [r4, #12]	@ zero_extendqisi2
 552 0012 FFF7FEFF 		bl	Beep_fourth
 553              	.LVL75:
 554 0016 607B     		ldrb	r0, [r4, #13]	@ zero_extendqisi2
 555 0018 FFF7FEFF 		bl	Beep_fourth
 556              	.LVL76:
  82:ZumoLibrary/Beep.c ****     Beep_half(b[1]); Beep_half(b[2]); Beep(qua*2.25-10, b[2]); CyDelay(10); Beep_fourth(b[0]); Beep
 557              		.loc 1 82 0
 558 001c 607B     		ldrb	r0, [r4, #13]	@ zero_extendqisi2
 559 001e FFF7FEFF 		bl	Beep_half
 560              	.LVL77:
 561 0022 A07B     		ldrb	r0, [r4, #14]	@ zero_extendqisi2
 562 0024 FFF7FEFF 		bl	Beep_half
 563              	.LVL78:
 564 0028 2068     		ldr	r0, [r4]
 565 002a FFF7FEFF 		bl	__aeabi_i2d
 566              	.LVL79:
 567 002e 0022     		movs	r2, #0
 568 0030 644B     		ldr	r3, .L42+4
 569 0032 FFF7FEFF 		bl	__aeabi_dmul
 570              	.LVL80:
 571 0036 0022     		movs	r2, #0
 572 0038 634B     		ldr	r3, .L42+8
 573 003a FFF7FEFF 		bl	__aeabi_dsub
 574              	.LVL81:
 575 003e FFF7FEFF 		bl	__aeabi_d2uiz
 576              	.LVL82:
 577 0042 A17B     		ldrb	r1, [r4, #14]	@ zero_extendqisi2
 578 0044 FFF7FEFF 		bl	Beep
 579              	.LVL83:
 580 0048 0A20     		movs	r0, #10
 581 004a FFF7FEFF 		bl	CyDelay
 582              	.LVL84:
 583 004e 207B     		ldrb	r0, [r4, #12]	@ zero_extendqisi2
 584 0050 FFF7FEFF 		bl	Beep_fourth
 585              	.LVL85:
 586 0054 607B     		ldrb	r0, [r4, #13]	@ zero_extendqisi2
 587 0056 FFF7FEFF 		bl	Beep_fourth
 588              	.LVL86:
 589 005a A07B     		ldrb	r0, [r4, #14]	@ zero_extendqisi2
 590 005c FFF7FEFF 		bl	Beep_fourth
 591              	.LVL87:
  83:ZumoLibrary/Beep.c ****     Beep_half(b[1]); Beep_half(b[4]); Beep(qua*2.25-10, b[4]); CyDelay(10); Beep_fourth(b[4]); Beep
 592              		.loc 1 83 0
 593 0060 607B     		ldrb	r0, [r4, #13]	@ zero_extendqisi2
 594 0062 FFF7FEFF 		bl	Beep_half
 595              	.LVL88:
 596 0066 207C     		ldrb	r0, [r4, #16]	@ zero_extendqisi2
 597 0068 FFF7FEFF 		bl	Beep_half
 598              	.LVL89:
 599 006c 2068     		ldr	r0, [r4]
 600 006e FFF7FEFF 		bl	__aeabi_i2d
 601              	.LVL90:
ARM GAS  C:\Users\TRIPHE~1\AppData\Local\Temp\cctub8xY.s 			page 13


 602 0072 0022     		movs	r2, #0
 603 0074 534B     		ldr	r3, .L42+4
 604 0076 FFF7FEFF 		bl	__aeabi_dmul
 605              	.LVL91:
 606 007a 0022     		movs	r2, #0
 607 007c 524B     		ldr	r3, .L42+8
 608 007e FFF7FEFF 		bl	__aeabi_dsub
 609              	.LVL92:
 610 0082 FFF7FEFF 		bl	__aeabi_d2uiz
 611              	.LVL93:
 612 0086 217C     		ldrb	r1, [r4, #16]	@ zero_extendqisi2
 613 0088 FFF7FEFF 		bl	Beep
 614              	.LVL94:
 615 008c 0A20     		movs	r0, #10
 616 008e FFF7FEFF 		bl	CyDelay
 617              	.LVL95:
 618 0092 207C     		ldrb	r0, [r4, #16]	@ zero_extendqisi2
 619 0094 FFF7FEFF 		bl	Beep_fourth
 620              	.LVL96:
 621 0098 607C     		ldrb	r0, [r4, #17]	@ zero_extendqisi2
 622 009a FFF7FEFF 		bl	Beep_fourth
 623              	.LVL97:
 624 009e A07C     		ldrb	r0, [r4, #18]	@ zero_extendqisi2
 625 00a0 FFF7FEFF 		bl	Beep_fourth
 626              	.LVL98:
  84:ZumoLibrary/Beep.c ****     Beep_half(b[6]); Beep_half(c[0]); Beep(qua*1.5 -10, c[0]); CyDelay(10); Beep_half(c[1]); CyDela
 627              		.loc 1 84 0
 628 00a4 A07C     		ldrb	r0, [r4, #18]	@ zero_extendqisi2
 629 00a6 FFF7FEFF 		bl	Beep_half
 630              	.LVL99:
 631 00aa 207D     		ldrb	r0, [r4, #20]	@ zero_extendqisi2
 632 00ac FFF7FEFF 		bl	Beep_half
 633              	.LVL100:
 634 00b0 2068     		ldr	r0, [r4]
 635 00b2 FFF7FEFF 		bl	__aeabi_i2d
 636              	.LVL101:
 637 00b6 0022     		movs	r2, #0
 638 00b8 444B     		ldr	r3, .L42+12
 639 00ba FFF7FEFF 		bl	__aeabi_dmul
 640              	.LVL102:
 641 00be 0022     		movs	r2, #0
 642 00c0 414B     		ldr	r3, .L42+8
 643 00c2 FFF7FEFF 		bl	__aeabi_dsub
 644              	.LVL103:
 645 00c6 FFF7FEFF 		bl	__aeabi_d2uiz
 646              	.LVL104:
 647 00ca 217D     		ldrb	r1, [r4, #20]	@ zero_extendqisi2
 648 00cc FFF7FEFF 		bl	Beep
 649              	.LVL105:
 650 00d0 0A20     		movs	r0, #10
 651 00d2 FFF7FEFF 		bl	CyDelay
 652              	.LVL106:
 653 00d6 607D     		ldrb	r0, [r4, #21]	@ zero_extendqisi2
 654 00d8 FFF7FEFF 		bl	Beep_half
 655              	.LVL107:
 656 00dc 2068     		ldr	r0, [r4]
 657 00de 00EBD070 		add	r0, r0, r0, lsr #31
ARM GAS  C:\Users\TRIPHE~1\AppData\Local\Temp\cctub8xY.s 			page 14


 658 00e2 4010     		asrs	r0, r0, #1
 659 00e4 FFF7FEFF 		bl	CyDelay
 660              	.LVL108:
 661 00e8 A07D     		ldrb	r0, [r4, #22]	@ zero_extendqisi2
 662 00ea FFF7FEFF 		bl	Beep_half
 663              	.LVL109:
 664 00ee 607D     		ldrb	r0, [r4, #21]	@ zero_extendqisi2
 665 00f0 FFF7FEFF 		bl	Beep_half
 666              	.LVL110:
 667 00f4 207D     		ldrb	r0, [r4, #20]	@ zero_extendqisi2
 668 00f6 FFF7FEFF 		bl	Beep_half
 669              	.LVL111:
  85:ZumoLibrary/Beep.c ****     Beep_black(b[6]); Beep_black(a[6]); Beep_half(b[2]); Beep_half(c[0]); Beep_half(b[6]); Beep_hal
 670              		.loc 1 85 0
 671 00fa A07C     		ldrb	r0, [r4, #18]	@ zero_extendqisi2
 672 00fc FFF7FEFF 		bl	Beep_black
 673              	.LVL112:
 674 0100 A07A     		ldrb	r0, [r4, #10]	@ zero_extendqisi2
 675 0102 FFF7FEFF 		bl	Beep_black
 676              	.LVL113:
 677 0106 A07B     		ldrb	r0, [r4, #14]	@ zero_extendqisi2
 678 0108 FFF7FEFF 		bl	Beep_half
 679              	.LVL114:
 680 010c 207D     		ldrb	r0, [r4, #20]	@ zero_extendqisi2
 681 010e FFF7FEFF 		bl	Beep_half
 682              	.LVL115:
 683 0112 A07C     		ldrb	r0, [r4, #18]	@ zero_extendqisi2
 684 0114 FFF7FEFF 		bl	Beep_half
 685              	.LVL116:
 686 0118 207C     		ldrb	r0, [r4, #16]	@ zero_extendqisi2
 687 011a FFF7FEFF 		bl	Beep_half
 688              	.LVL117:
  86:ZumoLibrary/Beep.c ****     Beep_fourth(b[4]); Beep_fourth(b[5]); Beep(qua*2.5-10, b[5]); CyDelay(10); Beep_fourth(b[4]); B
 689              		.loc 1 86 0
 690 011e 207C     		ldrb	r0, [r4, #16]	@ zero_extendqisi2
 691 0120 FFF7FEFF 		bl	Beep_fourth
 692              	.LVL118:
 693 0124 607C     		ldrb	r0, [r4, #17]	@ zero_extendqisi2
 694 0126 FFF7FEFF 		bl	Beep_fourth
 695              	.LVL119:
 696 012a 2068     		ldr	r0, [r4]
 697 012c FFF7FEFF 		bl	__aeabi_i2d
 698              	.LVL120:
 699 0130 0022     		movs	r2, #0
 700 0132 274B     		ldr	r3, .L42+16
 701 0134 FFF7FEFF 		bl	__aeabi_dmul
 702              	.LVL121:
 703 0138 0022     		movs	r2, #0
 704 013a 234B     		ldr	r3, .L42+8
 705 013c FFF7FEFF 		bl	__aeabi_dsub
 706              	.LVL122:
 707 0140 FFF7FEFF 		bl	__aeabi_d2uiz
 708              	.LVL123:
 709 0144 617C     		ldrb	r1, [r4, #17]	@ zero_extendqisi2
 710 0146 FFF7FEFF 		bl	Beep
 711              	.LVL124:
 712 014a 0A20     		movs	r0, #10
ARM GAS  C:\Users\TRIPHE~1\AppData\Local\Temp\cctub8xY.s 			page 15


 713 014c FFF7FEFF 		bl	CyDelay
 714              	.LVL125:
 715 0150 207C     		ldrb	r0, [r4, #16]	@ zero_extendqisi2
 716 0152 FFF7FEFF 		bl	Beep_fourth
 717              	.LVL126:
 718 0156 E07B     		ldrb	r0, [r4, #15]	@ zero_extendqisi2
 719 0158 FFF7FEFF 		bl	Beep_fourth
 720              	.LVL127:
  87:ZumoLibrary/Beep.c ****     Beep_half(b[3]); Beep_half(b[4]); Beep_black(b[5]); Beep(qua*1.5-10, b[5]); CyDelay(10); Beep_f
 721              		.loc 1 87 0
 722 015c E07B     		ldrb	r0, [r4, #15]	@ zero_extendqisi2
 723 015e FFF7FEFF 		bl	Beep_half
 724              	.LVL128:
 725 0162 207C     		ldrb	r0, [r4, #16]	@ zero_extendqisi2
 726 0164 FFF7FEFF 		bl	Beep_half
 727              	.LVL129:
 728 0168 607C     		ldrb	r0, [r4, #17]	@ zero_extendqisi2
 729 016a FFF7FEFF 		bl	Beep_black
 730              	.LVL130:
 731 016e 2068     		ldr	r0, [r4]
 732 0170 FFF7FEFF 		bl	__aeabi_i2d
 733              	.LVL131:
 734 0174 0022     		movs	r2, #0
 735 0176 154B     		ldr	r3, .L42+12
 736 0178 FFF7FEFF 		bl	__aeabi_dmul
 737              	.LVL132:
 738 017c 0022     		movs	r2, #0
 739 017e 124B     		ldr	r3, .L42+8
 740 0180 FFF7FEFF 		bl	__aeabi_dsub
 741              	.LVL133:
 742 0184 FFF7FEFF 		bl	__aeabi_d2uiz
 743              	.LVL134:
 744 0188 617C     		ldrb	r1, [r4, #17]	@ zero_extendqisi2
 745 018a FFF7FEFF 		bl	Beep
 746              	.LVL135:
 747 018e 0A20     		movs	r0, #10
 748 0190 FFF7FEFF 		bl	CyDelay
 749              	.LVL136:
 750 0194 207B     		ldrb	r0, [r4, #12]	@ zero_extendqisi2
 751 0196 FFF7FEFF 		bl	Beep_fourth
 752              	.LVL137:
 753 019a 607B     		ldrb	r0, [r4, #13]	@ zero_extendqisi2
 754 019c FFF7FEFF 		bl	Beep_fourth
 755              	.LVL138:
  88:ZumoLibrary/Beep.c ****     Beep_half(b[2]); Beep_half(b[3]); Beep_white(b[3]); Beep_half(b[4]); Beep_half(b[3]);
 756              		.loc 1 88 0
 757 01a0 A07B     		ldrb	r0, [r4, #14]	@ zero_extendqisi2
 758 01a2 FFF7FEFF 		bl	Beep_half
 759              	.LVL139:
 760 01a6 E07B     		ldrb	r0, [r4, #15]	@ zero_extendqisi2
 761 01a8 FFF7FEFF 		bl	Beep_half
 762              	.LVL140:
 763 01ac E07B     		ldrb	r0, [r4, #15]	@ zero_extendqisi2
 764 01ae FFF7FEFF 		bl	Beep_white
 765              	.LVL141:
 766 01b2 207C     		ldrb	r0, [r4, #16]	@ zero_extendqisi2
 767 01b4 FFF7FEFF 		bl	Beep_half
ARM GAS  C:\Users\TRIPHE~1\AppData\Local\Temp\cctub8xY.s 			page 16


 768              	.LVL142:
 769 01b8 E07B     		ldrb	r0, [r4, #15]	@ zero_extendqisi2
 770 01ba FFF7FEFF 		bl	Beep_half
 771              	.LVL143:
 772 01be 10BD     		pop	{r4, pc}
 773              	.L43:
 774              		.align	2
 775              	.L42:
 776 01c0 00000000 		.word	.LANCHOR0
 777 01c4 00000240 		.word	1073872896
 778 01c8 00002440 		.word	1076101120
 779 01cc 0000F83F 		.word	1073217536
 780 01d0 00000440 		.word	1074003968
 781              		.cfi_endproc
 782              	.LFE73:
 783              		.size	kissTheRain, .-kissTheRain
 784              		.section	.text.saxguys,"ax",%progbits
 785              		.align	2
 786              		.global	saxguys
 787              		.thumb
 788              		.thumb_func
 789              		.type	saxguys, %function
 790              	saxguys:
 791              	.LFB74:
  89:ZumoLibrary/Beep.c **** }
  90:ZumoLibrary/Beep.c **** 
  91:ZumoLibrary/Beep.c **** void saxguys() {
 792              		.loc 1 91 0
 793              		.cfi_startproc
 794              		@ Volatile: function does not return.
 795              		@ args = 0, pretend = 0, frame = 0
 796              		@ frame_needed = 0, uses_anonymous_args = 0
 797 0000 08B5     		push	{r3, lr}
 798              		.cfi_def_cfa_offset 8
 799              		.cfi_offset 3, -8
 800              		.cfi_offset 14, -4
  92:ZumoLibrary/Beep.c ****     qua = 420;
 801              		.loc 1 92 0
 802 0002 4FF4D272 		mov	r2, #420
 803 0006 364B     		ldr	r3, .L47
 804 0008 1A60     		str	r2, [r3]
 805              	.L45:
  93:ZumoLibrary/Beep.c ****     for(;;) {
  94:ZumoLibrary/Beep.c ****     Beep_black(b[5]);CyDelay(qua);Beep_half(b[5]);Beep_fourth(b[5]);Beep_fourth(b[5]); Beep_fourth(
 806              		.loc 1 94 0 discriminator 1
 807 000a 354C     		ldr	r4, .L47
 808 000c 607C     		ldrb	r0, [r4, #17]	@ zero_extendqisi2
 809 000e FFF7FEFF 		bl	Beep_black
 810              	.LVL144:
 811 0012 2068     		ldr	r0, [r4]
 812 0014 FFF7FEFF 		bl	CyDelay
 813              	.LVL145:
 814 0018 607C     		ldrb	r0, [r4, #17]	@ zero_extendqisi2
 815 001a FFF7FEFF 		bl	Beep_half
 816              	.LVL146:
 817 001e 607C     		ldrb	r0, [r4, #17]	@ zero_extendqisi2
 818 0020 FFF7FEFF 		bl	Beep_fourth
ARM GAS  C:\Users\TRIPHE~1\AppData\Local\Temp\cctub8xY.s 			page 17


 819              	.LVL147:
 820 0024 607C     		ldrb	r0, [r4, #17]	@ zero_extendqisi2
 821 0026 FFF7FEFF 		bl	Beep_fourth
 822              	.LVL148:
 823 002a 207C     		ldrb	r0, [r4, #16]	@ zero_extendqisi2
 824 002c FFF7FEFF 		bl	Beep_fourth
 825              	.LVL149:
 826 0030 607C     		ldrb	r0, [r4, #17]	@ zero_extendqisi2
 827 0032 FFF7FEFF 		bl	Beep_fourth
 828              	.LVL150:
 829 0036 2068     		ldr	r0, [r4]
 830 0038 00EBD070 		add	r0, r0, r0, lsr #31
 831 003c 4010     		asrs	r0, r0, #1
 832 003e FFF7FEFF 		bl	CyDelay
 833              	.LVL151:
  95:ZumoLibrary/Beep.c ****     Beep_black(b[5]);CyDelay(qua);Beep_half(b[5]);Beep_fourth(b[5]);Beep_fourth(b[5]); Beep_fourth(
 834              		.loc 1 95 0 discriminator 1
 835 0042 607C     		ldrb	r0, [r4, #17]	@ zero_extendqisi2
 836 0044 FFF7FEFF 		bl	Beep_black
 837              	.LVL152:
 838 0048 2068     		ldr	r0, [r4]
 839 004a FFF7FEFF 		bl	CyDelay
 840              	.LVL153:
 841 004e 607C     		ldrb	r0, [r4, #17]	@ zero_extendqisi2
 842 0050 FFF7FEFF 		bl	Beep_half
 843              	.LVL154:
 844 0054 607C     		ldrb	r0, [r4, #17]	@ zero_extendqisi2
 845 0056 FFF7FEFF 		bl	Beep_fourth
 846              	.LVL155:
 847 005a 607C     		ldrb	r0, [r4, #17]	@ zero_extendqisi2
 848 005c FFF7FEFF 		bl	Beep_fourth
 849              	.LVL156:
 850 0060 207C     		ldrb	r0, [r4, #16]	@ zero_extendqisi2
 851 0062 FFF7FEFF 		bl	Beep_fourth
 852              	.LVL157:
 853 0066 607C     		ldrb	r0, [r4, #17]	@ zero_extendqisi2
 854 0068 FFF7FEFF 		bl	Beep_fourth
 855              	.LVL158:
 856 006c 2068     		ldr	r0, [r4]
 857 006e 00EBD070 		add	r0, r0, r0, lsr #31
 858 0072 4010     		asrs	r0, r0, #1
 859 0074 FFF7FEFF 		bl	CyDelay
 860              	.LVL159:
  96:ZumoLibrary/Beep.c ****     Beep_black(b[5]);CyDelay(qua/2);Beep_black(c[0]); Beep_half(b[5]); CyDelay(qua/2); Beep_half(b[
 861              		.loc 1 96 0 discriminator 1
 862 0078 607C     		ldrb	r0, [r4, #17]	@ zero_extendqisi2
 863 007a FFF7FEFF 		bl	Beep_black
 864              	.LVL160:
 865 007e 2068     		ldr	r0, [r4]
 866 0080 00EBD070 		add	r0, r0, r0, lsr #31
 867 0084 4010     		asrs	r0, r0, #1
 868 0086 FFF7FEFF 		bl	CyDelay
 869              	.LVL161:
 870 008a 207D     		ldrb	r0, [r4, #20]	@ zero_extendqisi2
 871 008c FFF7FEFF 		bl	Beep_black
 872              	.LVL162:
 873 0090 607C     		ldrb	r0, [r4, #17]	@ zero_extendqisi2
ARM GAS  C:\Users\TRIPHE~1\AppData\Local\Temp\cctub8xY.s 			page 18


 874 0092 FFF7FEFF 		bl	Beep_half
 875              	.LVL163:
 876 0096 2068     		ldr	r0, [r4]
 877 0098 00EBD070 		add	r0, r0, r0, lsr #31
 878 009c 4010     		asrs	r0, r0, #1
 879 009e FFF7FEFF 		bl	CyDelay
 880              	.LVL164:
 881 00a2 207C     		ldrb	r0, [r4, #16]	@ zero_extendqisi2
 882 00a4 FFF7FEFF 		bl	Beep_half
 883              	.LVL165:
  97:ZumoLibrary/Beep.c ****     Beep_half(b[4]);Beep_half(b[3]); CyDelay(qua/2); Beep_half(b[1]); Beep_half(b[1]); Beep_half(b[
 884              		.loc 1 97 0 discriminator 1
 885 00a8 207C     		ldrb	r0, [r4, #16]	@ zero_extendqisi2
 886 00aa FFF7FEFF 		bl	Beep_half
 887              	.LVL166:
 888 00ae E07B     		ldrb	r0, [r4, #15]	@ zero_extendqisi2
 889 00b0 FFF7FEFF 		bl	Beep_half
 890              	.LVL167:
 891 00b4 2068     		ldr	r0, [r4]
 892 00b6 00EBD070 		add	r0, r0, r0, lsr #31
 893 00ba 4010     		asrs	r0, r0, #1
 894 00bc FFF7FEFF 		bl	CyDelay
 895              	.LVL168:
 896 00c0 607B     		ldrb	r0, [r4, #13]	@ zero_extendqisi2
 897 00c2 FFF7FEFF 		bl	Beep_half
 898              	.LVL169:
 899 00c6 607B     		ldrb	r0, [r4, #13]	@ zero_extendqisi2
 900 00c8 FFF7FEFF 		bl	Beep_half
 901              	.LVL170:
 902 00cc A07B     		ldrb	r0, [r4, #14]	@ zero_extendqisi2
 903 00ce FFF7FEFF 		bl	Beep_half
 904              	.LVL171:
 905 00d2 E07B     		ldrb	r0, [r4, #15]	@ zero_extendqisi2
 906 00d4 FFF7FEFF 		bl	Beep_half
 907              	.LVL172:
 908 00d8 607B     		ldrb	r0, [r4, #13]	@ zero_extendqisi2
 909 00da FFF7FEFF 		bl	Beep_half
 910              	.LVL173:
 911 00de 94E7     		b	.L45
 912              	.L48:
 913              		.align	2
 914              	.L47:
 915 00e0 00000000 		.word	.LANCHOR0
 916              		.cfi_endproc
 917              	.LFE74:
 918              		.size	saxguys, .-saxguys
 919              		.global	c
 920              		.global	b
 921              		.global	a
 922              		.global	qua
 923              		.data
 924              		.align	2
 925              		.set	.LANCHOR0,. + 0
 926              		.type	qua, %object
 927              		.size	qua, 4
 928              	qua:
 929 0000 96000000 		.word	150
ARM GAS  C:\Users\TRIPHE~1\AppData\Local\Temp\cctub8xY.s 			page 19


 930              		.type	a, %object
 931              		.size	a, 7
 932              	a:
 933 0004 00       		.byte	0
 934 0005 00       		.byte	0
 935 0006 00       		.byte	0
 936 0007 00       		.byte	0
 937 0008 FB       		.byte	-5
 938 0009 E0       		.byte	-32
 939 000a C7       		.byte	-57
 940 000b 00       		.space	1
 941              		.type	b, %object
 942              		.size	b, 7
 943              	b:
 944 000c BC       		.byte	-68
 945 000d A7       		.byte	-89
 946 000e 95       		.byte	-107
 947 000f 8D       		.byte	-115
 948 0010 7D       		.byte	125
 949 0011 6F       		.byte	111
 950 0012 63       		.byte	99
 951 0013 00       		.space	1
 952              		.type	c, %object
 953              		.size	c, 7
 954              	c:
 955 0014 5D       		.byte	93
 956 0015 53       		.byte	83
 957 0016 4A       		.byte	74
 958 0017 46       		.byte	70
 959 0018 3E       		.byte	62
 960 0019 37       		.byte	55
 961 001a 31       		.byte	49
 962 001b 00       		.text
 963              	.Letext0:
 964              		.file 2 "c:\\program files (x86)\\cypress\\psoc creator\\4.0\\psoc creator\\import\\gnu\\arm\\4.9.
 965              		.file 3 "c:\\program files (x86)\\cypress\\psoc creator\\4.0\\psoc creator\\import\\gnu\\arm\\4.9.
 966              		.file 4 "Generated_Source\\PSoC5/cytypes.h"
 967              		.file 5 "Generated_Source\\PSoC5/Buzzer_PWM.h"
 968              		.file 6 "Generated_Source\\PSoC5/CyLib.h"
 969              		.file 7 "Generated_Source\\PSoC5/core_cm3.h"