ARM GAS  C:\Users\TRIPHE~1\AppData\Local\Temp\ccmugB4z.s 			page 1


   1              		.syntax unified
   2              		.cpu cortex-m3
   3              		.fpu softvfp
   4              		.eabi_attribute 20, 1
   5              		.eabi_attribute 21, 1
   6              		.eabi_attribute 23, 3
   7              		.eabi_attribute 24, 1
   8              		.eabi_attribute 25, 1
   9              		.eabi_attribute 26, 1
  10              		.eabi_attribute 30, 1
  11              		.eabi_attribute 34, 1
  12              		.eabi_attribute 18, 4
  13              		.thumb
  14              		.file	"main.c"
  15              		.text
  16              	.Ltext0:
  17              		.cfi_sections	.debug_frame
  18              		.global	__aeabi_i2f
  19              		.global	__aeabi_fmul
  20              		.global	__aeabi_fadd
  21              		.global	__aeabi_fcmpgt
  22              		.global	__aeabi_fcmplt
  23              		.global	__aeabi_fsub
  24              		.global	__aeabi_fdiv
  25              		.global	__aeabi_f2iz
  26              		.global	__aeabi_i2d
  27              		.global	__aeabi_dmul
  28              		.global	__aeabi_d2iz
  29              		.section	.text.main,"ax",%progbits
  30              		.align	2
  31              		.global	main
  32              		.thumb
  33              		.thumb_func
  34              		.type	main, %function
  35              	main:
  36              	.LFB63:
  37              		.file 1 "main.c"
   1:main.c        **** /**
   2:main.c        **** * @mainpage ZumoBot Project
   3:main.c        **** * @brief    You can make your own ZumoBot with various sensors.
   4:main.c        **** * @details  <br><br>
   5:main.c        ****     <p>
   6:main.c        ****     <B>General</B><br>
   7:main.c        ****     You will use Pololu Zumo Shields for your robot project with CY8CKIT-059(PSoC 5LP) from Cypress
   8:main.c        ****     library has basic methods of various sensors and communications so that you can make what you w
   9:main.c        ****     <br><br>
  10:main.c        ****     </p>
  11:main.c        ****     
  12:main.c        ****     <p>
  13:main.c        ****     <B>Sensors</B><br>
  14:main.c        ****     &nbsp;Included: <br>
  15:main.c        ****         &nbsp;&nbsp;&nbsp;&nbsp;LSM303D: Accelerometer & Magnetometer<br>
  16:main.c        ****         &nbsp;&nbsp;&nbsp;&nbsp;L3GD20H: Gyroscope<br>
  17:main.c        ****         &nbsp;&nbsp;&nbsp;&nbsp;Reflectance sensor<br>
  18:main.c        ****         &nbsp;&nbsp;&nbsp;&nbsp;Motors
  19:main.c        ****     &nbsp;Wii nunchuck<br>
  20:main.c        ****     &nbsp;TSOP-2236: IR Receiver<br>
ARM GAS  C:\Users\TRIPHE~1\AppData\Local\Temp\ccmugB4z.s 			page 2


  21:main.c        ****     &nbsp;HC-SR04: Ultrasonic sensor<br>
  22:main.c        ****     &nbsp;APDS-9301: Ambient light sensor<br>
  23:main.c        ****     &nbsp;IR LED <br><br><br>
  24:main.c        ****     </p>
  25:main.c        ****     
  26:main.c        ****     <p>
  27:main.c        ****     <B>Communication</B><br>
  28:main.c        ****     I2C, UART, Serial<br>
  29:main.c        ****     </p>
  30:main.c        **** */
  31:main.c        **** 
  32:main.c        **** #include <project.h>
  33:main.c        **** #include <stdio.h>
  34:main.c        **** #include "Motor.h"
  35:main.c        **** #include "Ultra.h"
  36:main.c        **** #include "Nunchuk.h"
  37:main.c        **** #include "Reflectance.h"
  38:main.c        **** #include "I2C_made.h"
  39:main.c        **** #include "Gyro.h"
  40:main.c        **** #include "Accel_magnet.h"
  41:main.c        **** #include "IR.h"
  42:main.c        **** #include "Ambient.h"
  43:main.c        **** #include "Beep.h"
  44:main.c        **** #include <time.h>
  45:main.c        **** #include <stdlib.h>
  46:main.c        **** 
  47:main.c        **** 
  48:main.c        **** int rread(void);
  49:main.c        **** 
  50:main.c        **** /**
  51:main.c        ****  * @file    main.c
  52:main.c        ****  * @brief   
  53:main.c        ****  * @details  ** You should enable global interrupt for operating properly. **<br>&nbsp;&nbsp;&nbsp;
  54:main.c        **** */
  55:main.c        **** 
  56:main.c        **** 
  57:main.c        **** /*//battery level//
  58:main.c        **** int main()
  59:main.c        **** {
  60:main.c        ****     CyGlobalIntEnable; 
  61:main.c        ****     UART_1_Start();
  62:main.c        ****     ADC_Battery_Start();        
  63:main.c        ****     int16 adcresult =0;
  64:main.c        ****     float volts = 0.0;
  65:main.c        **** 
  66:main.c        ****     printf("\nBoot\n");
  67:main.c        **** 
  68:main.c        ****     //BatteryLed_Write(1); // Switch led on 
  69:main.c        ****     BatteryLed_Write(0); // Switch led off 
  70:main.c        **** 
  71:main.c        **** 
  72:main.c        ****     for(;;)
  73:main.c        ****     {
  74:main.c        ****         
  75:main.c        ****         ADC_Battery_StartConvert();
  76:main.c        ****         if(ADC_Battery_IsEndConversion(ADC_Battery_WAIT_FOR_RESULT)) {   // wait for get ADC conver
  77:main.c        ****             adcresult = ADC_Battery_GetResult16();
ARM GAS  C:\Users\TRIPHE~1\AppData\Local\Temp\ccmugB4z.s 			page 3


  78:main.c        ****             volts = ADC_Battery_CountsTo_Volts(adcresult);                  // convert value to Vol
  79:main.c        ****         
  80:main.c        ****             // If you want to print value
  81:main.c        ****             printf("%d %f\r\n",adcresult, volts);
  82:main.c        ****         }
  83:main.c        ****         CyDelay(500);
  84:main.c        ****         
  85:main.c        ****     }
  86:main.c        ****  }   
  87:main.c        **** //*/
  88:main.c        **** 
  89:main.c        **** 
  90:main.c        **** /*//ultra sonic sensor//
  91:main.c        **** int main()
  92:main.c        **** {
  93:main.c        ****     CyGlobalIntEnable; 
  94:main.c        ****     UART_1_Start();
  95:main.c        ****     Ultra_Start();                          // Ultra Sonic Start function
  96:main.c        ****     while(1) {
  97:main.c        ****         //If you want to print out the value  
  98:main.c        ****         printf("distance = %5.0f\r\n", Ultra_GetDistance());
  99:main.c        ****         CyDelay(1000);
 100:main.c        ****     }
 101:main.c        **** }   
 102:main.c        **** //*/
 103:main.c        **** 
 104:main.c        **** 
 105:main.c        **** /*//nunchuk//
 106:main.c        **** int main()
 107:main.c        **** {
 108:main.c        ****     CyGlobalIntEnable; 
 109:main.c        ****     UART_1_Start();
 110:main.c        ****   
 111:main.c        ****     nunchuk_start();
 112:main.c        ****     nunchuk_init();
 113:main.c        ****     
 114:main.c        ****     for(;;)
 115:main.c        ****     {    
 116:main.c        ****         nunchuk_read();
 117:main.c        ****     }
 118:main.c        **** }   
 119:main.c        **** //*/
 120:main.c        **** 
 121:main.c        **** 
 122:main.c        **** /*//IR receiver//
 123:main.c        **** int main()
 124:main.c        **** {
 125:main.c        ****     CyGlobalIntEnable; 
 126:main.c        ****     UART_1_Start();
 127:main.c        ****     
 128:main.c        ****     unsigned int IR_val; 
 129:main.c        ****     
 130:main.c        ****     for(;;)
 131:main.c        ****     {
 132:main.c        ****         IR_val = get_IR();
 133:main.c        ****         printf("%x\r\n\n",IR_val);
 134:main.c        ****         if (IR_val == 0xfe013b86) {
ARM GAS  C:\Users\TRIPHE~1\AppData\Local\Temp\ccmugB4z.s 			page 4


 135:main.c        ****             Mario_Victory();
 136:main.c        ****         }
 137:main.c        ****         else if (IR_val == 0xfa053b86) {
 138:main.c        ****             Mario_Victory();
 139:main.c        ****         }
 140:main.c        ****         else if (IR_val == 0xfb043b86) {
 141:main.c        ****             Mario_Victory();
 142:main.c        ****         }
 143:main.c        ****         else if (IR_val == 0xfd023b86) {
 144:main.c        ****             Mario_Victory();
 145:main.c        ****         }
 146:main.c        ****         else if (IR_val == 0xfc033b86) {
 147:main.c        ****             Mario_Victory();
 148:main.c        ****         }
 149:main.c        ****     }
 150:main.c        ****  }   
 151:main.c        **** //*/
 152:main.c        **** 
 153:main.c        **** 
 154:main.c        **** /*//Ambient light sensor//
 155:main.c        **** int main()
 156:main.c        **** {
 157:main.c        ****     CyGlobalIntEnable; 
 158:main.c        ****     UART_1_Start();
 159:main.c        ****     
 160:main.c        ****     I2C_Start();
 161:main.c        ****     
 162:main.c        ****     I2C_write(0x29,0x80,0x00);          // set to power down
 163:main.c        ****     I2C_write(0x29,0x80,0x03);          // set to power on
 164:main.c        ****     
 165:main.c        ****     for(;;)
 166:main.c        ****     {    
 167:main.c        ****         uint8 Data0Low,Data0High,Data1Low,Data1High;
 168:main.c        ****         Data0Low = I2C_read(0x29,CH0_L);
 169:main.c        ****         Data0High = I2C_read(0x29,CH0_H);
 170:main.c        ****         Data1Low = I2C_read(0x29,CH1_L);
 171:main.c        ****         Data1High = I2C_read(0x29,CH1_H);
 172:main.c        ****         
 173:main.c        ****         uint8 CH0, CH1;
 174:main.c        ****         CH0 = convert_raw(Data0Low,Data0High);      // combine Data0
 175:main.c        ****         CH1 = convert_raw(Data1Low,Data1High);      // combine Data1
 176:main.c        **** 
 177:main.c        ****         double Ch0 = CH0;
 178:main.c        ****         double Ch1 = CH1;
 179:main.c        ****         
 180:main.c        ****         double data = 0;
 181:main.c        ****         data = getLux(Ch0,Ch1);
 182:main.c        ****         
 183:main.c        ****         // If you want to print out data
 184:main.c        ****         //printf("%lf\r\n",data);    
 185:main.c        ****     }    
 186:main.c        ****  }   
 187:main.c        **** //*/
 188:main.c        **** 
 189:main.c        **** 
 190:main.c        **** /*//accelerometer//
 191:main.c        **** int main()
ARM GAS  C:\Users\TRIPHE~1\AppData\Local\Temp\ccmugB4z.s 			page 5


 192:main.c        **** {
 193:main.c        ****     CyGlobalIntEnable; 
 194:main.c        ****     UART_1_Start();
 195:main.c        ****   
 196:main.c        ****     I2C_Start();
 197:main.c        ****   
 198:main.c        ****     uint8 X_L_A, X_H_A, Y_L_A, Y_H_A, Z_L_A, Z_H_A;
 199:main.c        ****     int16 X_AXIS_A, Y_AXIS_A, Z_AXIS_A;
 200:main.c        ****     
 201:main.c        ****     I2C_write(ACCEL_MAG_ADDR, ACCEL_CTRL1_REG, 0x37);           // set accelerometer & magnetometer
 202:main.c        ****     I2C_write(ACCEL_MAG_ADDR, ACCEL_CTRL7_REG, 0x22);
 203:main.c        ****     
 204:main.c        ****     
 205:main.c        ****     for(;;)
 206:main.c        ****     {
 207:main.c        ****         //print out accelerometer output
 208:main.c        ****         X_L_A = I2C_read(ACCEL_MAG_ADDR, OUT_X_L_A);
 209:main.c        ****         X_H_A = I2C_read(ACCEL_MAG_ADDR, OUT_X_H_A);
 210:main.c        ****         X_AXIS_A = convert_raw(X_L_A, X_H_A);
 211:main.c        ****         
 212:main.c        ****         Y_L_A = I2C_read(ACCEL_MAG_ADDR, OUT_Y_L_A);
 213:main.c        ****         Y_H_A = I2C_read(ACCEL_MAG_ADDR, OUT_Y_H_A);
 214:main.c        ****         Y_AXIS_A = convert_raw(Y_L_A, Y_H_A);
 215:main.c        ****         
 216:main.c        ****         Z_L_A = I2C_read(ACCEL_MAG_ADDR, OUT_Z_L_A);
 217:main.c        ****         Z_H_A = I2C_read(ACCEL_MAG_ADDR, OUT_Z_H_A);
 218:main.c        ****         Z_AXIS_A = convert_raw(Z_L_A, Z_H_A);
 219:main.c        ****         
 220:main.c        ****         printf("ACCEL: %d %d %d %d %d %d \r\n", X_L_A, X_H_A, Y_L_A, Y_H_A, Z_L_A, Z_H_A);
 221:main.c        ****         value_convert_accel(X_AXIS_A, Y_AXIS_A, Z_AXIS_A);
 222:main.c        ****         printf("\n");
 223:main.c        ****         
 224:main.c        ****         CyDelay(50);
 225:main.c        ****     }
 226:main.c        **** }   
 227:main.c        **** //*/
 228:main.c        **** 
 229:main.c        **** /*//
 230:main.c        **** int main()
 231:main.c        **** {
 232:main.c        ****     CyGlobalIntEnable; UART_1_Start(); motor_start();
 233:main.c        ****     for(;;)
 234:main.c        ****     {
 235:main.c        ****         motor_turn(100, -100, 1000);
 236:main.c        ****         motor_turn(100, 100, 1000);
 237:main.c        ****         motor_turn(-100, -100, 1000);
 238:main.c        ****         motor_turn(-100, 100, 1000);
 239:main.c        ****     }
 240:main.c        **** }
 241:main.c        **** //*/
 242:main.c        **** /*//
 243:main.c        **** int w[] = {0, 408, 612, 1020};
 244:main.c        **** 
 245:main.c        **** int getPosition(int max[], int min[], int speed) {
 246:main.c        ****     int scale = 1000;
 247:main.c        ****     struct sensors_ input;
 248:main.c        ****     reflectance_read(&input);
ARM GAS  C:\Users\TRIPHE~1\AppData\Local\Temp\ccmugB4z.s 			page 6


 249:main.c        **** //    printf("%d %d %d %d\n", input.l3, input.l1, input.r1, input.r3);
 250:main.c        ****     input.l3 = (input.l3 - min[0])*scale/(max[0] - min[0]);
 251:main.c        ****     input.l1 = (input.l1 - min[1])*scale/(max[0] - min[1]);
 252:main.c        ****     input.r1 = (input.r1 - min[2])*scale/(max[0] - min[2]);
 253:main.c        ****     input.r3 = (input.r3 - min[3])*scale/(max[0] - min[3]);
 254:main.c        ****     printf("%d %d %d %d\n", input.l3, input.l1, input.r1, input.r3);
 255:main.c        ****     if (input.l3 < 0) input.l3 = 0; else if (input.l3 > scale) input.l3 = scale;
 256:main.c        ****     if (input.l1 < 0) input.l1 = 0; else if (input.l1 > scale) input.l1 = scale;
 257:main.c        ****     if (input.r1 < 0) input.r1 = 0; else if (input.r1 > scale) input.r1 = scale;
 258:main.c        ****     if (input.r3 < 0) input.r3 = 0; else if (input.r3 > scale) input.r3 = scale;
 259:main.c        ****     int pos;
 260:main.c        ****     w[1] = speed*4/5*2; w[2] = speed*4/5*3; w[3] = speed*4;
 261:main.c        ****     pos = (input.l3 * w[0] + input.l1 * w[1] + input.r1 * w[2] + input.r3 * w[3])/(input.l3 + input
 262:main.c        ****     return(pos);
 263:main.c        **** }
 264:main.c        **** 
 265:main.c        **** int main()
 266:main.c        **** {
 267:main.c        ****     CyGlobalIntEnable; 
 268:main.c        ****     UART_1_Start(); 
 269:main.c        ****     sensor_isr_StartEx(sensor_isr_handler); 
 270:main.c        ****     reflectance_start(); 
 271:main.c        ****     IR_led_Write(1);
 272:main.c        ****     Ultra_Start();
 273:main.c        ****     ADC_Battery_Start();
 274:main.c        ****     CyDelay(2000);        
 275:main.c        ****     BatteryLed_Write(1);
 276:main.c        ****     motor_start();
 277:main.c        ****     
 278:main.c        ****     int j, max[] = {0, 0, 0, 0}, min[] = {23999, 23999, 23999, 23999};
 279:main.c        ****     struct sensors_ ref;
 280:main.c        ****     
 281:main.c        ****     for(j = 0; j < 700; j++) 
 282:main.c        ****     {
 283:main.c        ****         if (j < 75 || (j > 225 && j < 375) || j > 525) motor_turn(100,-100,1);
 284:main.c        ****         else motor_turn(-100,100,1);
 285:main.c        ****         CyDelay(5);
 286:main.c        ****         reflectance_read(&ref);
 287:main.c        ****         if (ref.l3 > max[0]) max[0] = ref.l3;
 288:main.c        ****         if (ref.l1 > max[1]) max[1] = ref.l1;
 289:main.c        ****         if (ref.r1 > max[2]) max[2] = ref.r1;
 290:main.c        ****         if (ref.r3 > max[3]) max[3] = ref.r3;
 291:main.c        ****         if (ref.l3 < min[0]) min[0] = ref.l3;
 292:main.c        ****         if (ref.l1 < min[1]) min[1] = ref.l1;
 293:main.c        ****         if (ref.r1 < min[2]) min[2] = ref.r1;
 294:main.c        ****         if (ref.r3 < min[3]) min[3] = ref.r3;
 295:main.c        ****     }
 296:main.c        ****     
 297:main.c        ****     BatteryLed_Write(0);
 298:main.c        ****     for (j = 0; j < 4; j++) {max[j] = (max[j] * 3 + min[j])/4; printf("%d %d\n", min[j], max[j]);}
 299:main.c        ****     do 
 300:main.c        ****     {
 301:main.c        ****         motor_turn(-100, 100, 1);
 302:main.c        ****         reflectance_read(&ref);
 303:main.c        ****     } while(ref.l1 < max[1] && ref.r1 < max[2]);
 304:main.c        **** //    motor_stop();
 305:main.c        ****         int speed = 255, error, aval = 0, lastError = 0, pid, limit = 20000;
ARM GAS  C:\Users\TRIPHE~1\AppData\Local\Temp\ccmugB4z.s 			page 7


 306:main.c        ****     float p, i, d, ki = 0.025, kp = 4, kd = 25/4 ;
 307:main.c        ****     for (;;)
 308:main.c        ****     {
 309:main.c        ****         error = getPosition(max, min, speed);
 310:main.c        ****         printf("%d ", error);
 311:main.c        ****         aval += error;
 312:main.c        ****         if (aval > limit) aval = limit;
 313:main.c        ****         if (aval < -limit) aval = -limit;
 314:main.c        ****         p = error * kp; i = aval * ki; d = (error - lastError) * kd;
 315:main.c        ****         lastError = error;
 316:main.c        ****         pid = p + i + d;
 317:main.c        ****         if (pid > speed * 2) pid = speed * 2;
 318:main.c        ****         if (pid < -speed * 2) pid = -speed * 2;
 319:main.c        ****         printf("%d\n", pid);
 320:main.c        **** //        CyDelay(1000);
 321:main.c        ****         if (pid >= 0) motor_turn(speed, speed - pid, 1);
 322:main.c        ****         else motor_turn(speed + pid, speed, 1);
 323:main.c        ****     }    
 324:main.c        **** }
 325:main.c        **** //*/
 326:main.c        **** 
 327:main.c        **** //Sumo
 328:main.c        **** /*//
 329:main.c        **** int check()
 330:main.c        **** {
 331:main.c        ****     struct sensors_ asdf;
 332:main.c        ****     reflectance_digital(&asdf);
 333:main.c        ****     if (asdf.l1 == 0 || asdf.r1 == 0 || asdf.l3 == 0 || asdf.r3 == 0) return(1);
 334:main.c        ****     return(0);
 335:main.c        **** }
 336:main.c        **** int main()
 337:main.c        **** {
 338:main.c        ****     CyGlobalIntEnable; 
 339:main.c        ****     UART_1_Start(); 
 340:main.c        ****     sensor_isr_StartEx(sensor_isr_handler); 
 341:main.c        ****     reflectance_start(); 
 342:main.c        ****     IR_led_Write(1);
 343:main.c        ****     Ultra_Start();
 344:main.c        ****     ADC_Battery_Start();
 345:main.c        ****     CyDelay(2000);        
 346:main.c        ****     BatteryLed_Write(1);
 347:main.c        ****     motor_start();
 348:main.c        ****     int segment = 100;
 349:main.c        ****     int dist,t;
 350:main.c        ****     srand(time(NULL));
 351:main.c        ****     
 352:main.c        ****     for(;;) {
 353:main.c        ****         int r = rand()%2;
 354:main.c        ****         if (r == 0) {while (Ultra_GetDistance() > 80) {motor_turn(100, -100, 1); if (check() == 1) 
 355:main.c        ****         else {while (Ultra_GetDistance() > 80) {motor_turn(-100, 100, 1); if (check() == 1) break;}
 356:main.c        ****         dist = Ultra_GetDistance();
 357:main.c        ****         t = 0;
 358:main.c        ****         if (check() == 1) {motor_backward(150, 500);}
 359:main.c        ****         while (1)
 360:main.c        ****         {
 361:main.c        ****             if (dist <= 30) motor_forward(255, 1);
 362:main.c        ****             else if (dist < 80) motor_forward(255 - (dist - 30)*5, 1);
ARM GAS  C:\Users\TRIPHE~1\AppData\Local\Temp\ccmugB4z.s 			page 8


 363:main.c        ****             if (check() == 1) break;
 364:main.c        ****             t++;
 365:main.c        ****             if (t > segment) dist = Ultra_GetDistance();
 366:main.c        ****             if (dist >80) break;
 367:main.c        ****         }
 368:main.c        ****     }
 369:main.c        **** }
 370:main.c        **** //*/
 371:main.c        **** 
 372:main.c        **** //Proper code
 373:main.c        **** //
 374:main.c        **** int main()
 375:main.c        **** {
  38              		.loc 1 375 0
  39              		.cfi_startproc
  40              		@ args = 0, pretend = 0, frame = 72
  41              		@ frame_needed = 0, uses_anonymous_args = 0
  42 0000 2DE9F04F 		push	{r4, r5, r6, r7, r8, r9, r10, fp, lr}
  43              		.cfi_def_cfa_offset 36
  44              		.cfi_offset 4, -36
  45              		.cfi_offset 5, -32
  46              		.cfi_offset 6, -28
  47              		.cfi_offset 7, -24
  48              		.cfi_offset 8, -20
  49              		.cfi_offset 9, -16
  50              		.cfi_offset 10, -12
  51              		.cfi_offset 11, -8
  52              		.cfi_offset 14, -4
  53 0004 95B0     		sub	sp, sp, #84
  54              		.cfi_def_cfa_offset 120
  55              	.LVL0:
 376:main.c        ****     //Set constants and variables declaration
 377:main.c        **** //    float ki = 0, kp = 1, kd = 0, volts = 0.0;
 378:main.c        **** //    float ki = 0.025, kp = 1.5, kd = 25, volts = 0;
 379:main.c        ****     float ki = 0.025, kp = 1.75, kd = 25, volts = 0;
 380:main.c        ****     float pred = 0, diff = 0, pro, integral, aval = 0, derv;
 381:main.c        ****     int driver, count = 0;
 382:main.c        ****     int i,j;
 383:main.c        ****     int max_speed = 255, mina = 80, limit = 20000;
 384:main.c        ****     int breaking_point = 0;
 385:main.c        ****     struct sensors_ ref, cal;
 386:main.c        ****     int16 adcresult = 0;
 387:main.c        ****     int min[] = {24000, 24000, 24000, 24000}, max[] = {0, 0, 0, 0};
  56              		.loc 1 387 0
  57 0006 B54B     		ldr	r3, .L96
  58 0008 0EAD     		add	r5, sp, #56
  59 000a 0FCB     		ldmia	r3, {r0, r1, r2, r3}
  60 000c 85E80F00 		stmia	r5, {r0, r1, r2, r3}
  61 0010 0025     		movs	r5, #0
  62 0012 0A95     		str	r5, [sp, #40]
  63 0014 0B95     		str	r5, [sp, #44]
  64 0016 0C95     		str	r5, [sp, #48]
  65 0018 0D95     		str	r5, [sp, #52]
  66              	.LVL1:
 388:main.c        ****     int time = -1, time1 = -1;
 389:main.c        ****     
 390:main.c        ****     //Warming up
ARM GAS  C:\Users\TRIPHE~1\AppData\Local\Temp\ccmugB4z.s 			page 9


 391:main.c        ****     CyGlobalIntEnable; UART_1_Start(); sensor_isr_StartEx(sensor_isr_handler); reflectance_start();
  67              		.loc 1 391 0
  68              	@ 391 "main.c" 1
  69 001a 62B6     		CPSIE   i
  70              	@ 0 "" 2
  71              		.thumb
  72 001c FFF7FEFF 		bl	UART_1_Start
  73              	.LVL2:
  74 0020 AF48     		ldr	r0, .L96+4
  75 0022 FFF7FEFF 		bl	sensor_isr_StartEx
  76              	.LVL3:
  77 0026 FFF7FEFF 		bl	reflectance_start
  78              	.LVL4:
  79 002a 0120     		movs	r0, #1
  80 002c FFF7FEFF 		bl	IR_led_Write
  81              	.LVL5:
 392:main.c        ****     Ultra_Start();
  82              		.loc 1 392 0
  83 0030 FFF7FEFF 		bl	Ultra_Start
  84              	.LVL6:
 393:main.c        ****     ADC_Battery_Start();
  85              		.loc 1 393 0
  86 0034 FFF7FEFF 		bl	ADC_Battery_Start
  87              	.LVL7:
 394:main.c        ****     CyDelay(2000);        
  88              		.loc 1 394 0
  89 0038 4FF4FA60 		mov	r0, #2000
  90 003c FFF7FEFF 		bl	CyDelay
  91              	.LVL8:
 395:main.c        ****     BatteryLed_Write(1);
  92              		.loc 1 395 0
  93 0040 0120     		movs	r0, #1
  94 0042 FFF7FEFF 		bl	BatteryLed_Write
  95              	.LVL9:
 396:main.c        ****     motor_start();
  96              		.loc 1 396 0
  97 0046 FFF7FEFF 		bl	motor_start
  98              	.LVL10:
 397:main.c        ****     for(i = 0; i < 700; i++) 
  99              		.loc 1 397 0
 100 004a 45E0     		b	.L2
 101              	.LVL11:
 102              	.L14:
 398:main.c        ****     {
 399:main.c        ****         if (i < 75 || (i > 225 && i < 375) || i > 525) motor_turn(100,-100,1);
 103              		.loc 1 399 0
 104 004c 4A2D     		cmp	r5, #74
 105 004e 07DD     		ble	.L3
 106              		.loc 1 399 0 is_stmt 0 discriminator 2
 107 0050 A5F1E203 		sub	r3, r5, #226
 108 0054 942B     		cmp	r3, #148
 109 0056 03D9     		bls	.L3
 110              		.loc 1 399 0 discriminator 4
 111 0058 40F20D23 		movw	r3, #525
 112 005c 9D42     		cmp	r5, r3
 113 005e 06DD     		ble	.L4
 114              	.L3:
ARM GAS  C:\Users\TRIPHE~1\AppData\Local\Temp\ccmugB4z.s 			page 10


 115              		.loc 1 399 0 discriminator 5
 116 0060 6420     		movs	r0, #100
 117 0062 6FF06301 		mvn	r1, #99
 118 0066 0122     		movs	r2, #1
 119 0068 FFF7FEFF 		bl	motor_turn
 120              	.LVL12:
 121 006c 05E0     		b	.L5
 122              	.L4:
 400:main.c        ****         else motor_turn(-100,100,1);
 123              		.loc 1 400 0 is_stmt 1
 124 006e 6FF06300 		mvn	r0, #99
 125 0072 6421     		movs	r1, #100
 126 0074 0122     		movs	r2, #1
 127 0076 FFF7FEFF 		bl	motor_turn
 128              	.LVL13:
 129              	.L5:
 401:main.c        ****         CyDelay(5);
 130              		.loc 1 401 0
 131 007a 0520     		movs	r0, #5
 132 007c FFF7FEFF 		bl	CyDelay
 133              	.LVL14:
 402:main.c        ****         reflectance_read(&ref);
 134              		.loc 1 402 0
 135 0080 12A8     		add	r0, sp, #72
 136 0082 FFF7FEFF 		bl	reflectance_read
 137              	.LVL15:
 403:main.c        ****         if (ref.l3 > max[0]) max[0] = ref.l3;
 138              		.loc 1 403 0
 139 0086 BDF84800 		ldrh	r0, [sp, #72]
 140 008a 0A9B     		ldr	r3, [sp, #40]
 141 008c 9842     		cmp	r0, r3
 142 008e 00DD     		ble	.L6
 143              		.loc 1 403 0 is_stmt 0 discriminator 1
 144 0090 0A90     		str	r0, [sp, #40]
 145              	.L6:
 404:main.c        ****         if (ref.l1 > max[1]) max[1] = ref.l1;
 146              		.loc 1 404 0 is_stmt 1
 147 0092 BDF84A10 		ldrh	r1, [sp, #74]
 148 0096 0B9B     		ldr	r3, [sp, #44]
 149 0098 9942     		cmp	r1, r3
 150 009a 00DD     		ble	.L7
 151              		.loc 1 404 0 is_stmt 0 discriminator 1
 152 009c 0B91     		str	r1, [sp, #44]
 153              	.L7:
 405:main.c        ****         if (ref.r1 > max[2]) max[2] = ref.r1;
 154              		.loc 1 405 0 is_stmt 1
 155 009e BDF84C20 		ldrh	r2, [sp, #76]
 156 00a2 0C9B     		ldr	r3, [sp, #48]
 157 00a4 9A42     		cmp	r2, r3
 158 00a6 00DD     		ble	.L8
 159              		.loc 1 405 0 is_stmt 0 discriminator 1
 160 00a8 0C92     		str	r2, [sp, #48]
 161              	.L8:
 406:main.c        ****         if (ref.r3 > max[3]) max[3] = ref.r3;
 162              		.loc 1 406 0 is_stmt 1
 163 00aa BDF84E30 		ldrh	r3, [sp, #78]
 164 00ae 0D9E     		ldr	r6, [sp, #52]
ARM GAS  C:\Users\TRIPHE~1\AppData\Local\Temp\ccmugB4z.s 			page 11


 165 00b0 B342     		cmp	r3, r6
 166 00b2 00DD     		ble	.L9
 167              		.loc 1 406 0 is_stmt 0 discriminator 1
 168 00b4 0D93     		str	r3, [sp, #52]
 169              	.L9:
 407:main.c        ****         if (ref.l3 < min[0]) min[0] = ref.l3;
 170              		.loc 1 407 0 is_stmt 1
 171 00b6 0E9E     		ldr	r6, [sp, #56]
 172 00b8 B042     		cmp	r0, r6
 173 00ba 00DA     		bge	.L10
 174              		.loc 1 407 0 is_stmt 0 discriminator 1
 175 00bc 0E90     		str	r0, [sp, #56]
 176              	.L10:
 408:main.c        ****         if (ref.l1 < min[1]) min[1] = ref.l1;
 177              		.loc 1 408 0 is_stmt 1
 178 00be 0F98     		ldr	r0, [sp, #60]
 179 00c0 8142     		cmp	r1, r0
 180 00c2 00DA     		bge	.L11
 181              		.loc 1 408 0 is_stmt 0 discriminator 1
 182 00c4 0F91     		str	r1, [sp, #60]
 183              	.L11:
 409:main.c        ****         if (ref.r1 < min[2]) min[2] = ref.r1;
 184              		.loc 1 409 0 is_stmt 1
 185 00c6 1099     		ldr	r1, [sp, #64]
 186 00c8 8A42     		cmp	r2, r1
 187 00ca 00DA     		bge	.L12
 188              		.loc 1 409 0 is_stmt 0 discriminator 1
 189 00cc 1092     		str	r2, [sp, #64]
 190              	.L12:
 410:main.c        ****         if (ref.r3 < min[3]) min[3] = ref.r3;
 191              		.loc 1 410 0 is_stmt 1
 192 00ce 119A     		ldr	r2, [sp, #68]
 193 00d0 9342     		cmp	r3, r2
 194 00d2 00DA     		bge	.L13
 195              		.loc 1 410 0 is_stmt 0 discriminator 1
 196 00d4 1193     		str	r3, [sp, #68]
 197              	.L13:
 397:main.c        ****     {
 198              		.loc 1 397 0 is_stmt 1 discriminator 2
 199 00d6 0135     		adds	r5, r5, #1
 200              	.LVL16:
 201              	.L2:
 397:main.c        ****     {
 202              		.loc 1 397 0 is_stmt 0 discriminator 1
 203 00d8 B5F52F7F 		cmp	r5, #700
 204 00dc B6DB     		blt	.L14
 411:main.c        ****     }
 412:main.c        ****     BatteryLed_Write(0);
 205              		.loc 1 412 0 is_stmt 1
 206 00de 0020     		movs	r0, #0
 207 00e0 FFF7FEFF 		bl	BatteryLed_Write
 208              	.LVL17:
 413:main.c        ****     reflectance_set_threshold((min[0] + max[0]*4)/5, (min[1] + max[1]*3)/4, (min[2] + max[2]*3)/4, 
 209              		.loc 1 413 0
 210 00e4 DDF838B0 		ldr	fp, [sp, #56]
 211 00e8 0A9E     		ldr	r6, [sp, #40]
 212 00ea 0BEB8603 		add	r3, fp, r6, lsl #2
ARM GAS  C:\Users\TRIPHE~1\AppData\Local\Temp\ccmugB4z.s 			page 12


 213 00ee 7D48     		ldr	r0, .L96+8
 214 00f0 80FB0320 		smull	r2, r0, r0, r3
 215 00f4 DB17     		asrs	r3, r3, #31
 216 00f6 C3EB6000 		rsb	r0, r3, r0, asr #1
 217 00fa 0F9B     		ldr	r3, [sp, #60]
 218 00fc 1A46     		mov	r2, r3
 219 00fe 0393     		str	r3, [sp, #12]
 220 0100 0B9B     		ldr	r3, [sp, #44]
 221 0102 0493     		str	r3, [sp, #16]
 222 0104 03EB4303 		add	r3, r3, r3, lsl #1
 223 0108 D318     		adds	r3, r2, r3
 224 010a 00D5     		bpl	.L15
 225 010c 0333     		adds	r3, r3, #3
 226              	.L15:
 227 010e 9B10     		asrs	r3, r3, #2
 228 0110 0593     		str	r3, [sp, #20]
 229 0112 1FFA83F9 		uxth	r9, r3
 230 0116 109D     		ldr	r5, [sp, #64]
 231              	.LVL18:
 232 0118 0C9B     		ldr	r3, [sp, #48]
 233 011a 0693     		str	r3, [sp, #24]
 234 011c 03EB4303 		add	r3, r3, r3, lsl #1
 235 0120 EB18     		adds	r3, r5, r3
 236 0122 00D5     		bpl	.L16
 237 0124 0333     		adds	r3, r3, #3
 238              	.L16:
 239 0126 9B10     		asrs	r3, r3, #2
 240 0128 0793     		str	r3, [sp, #28]
 241 012a 1FFA83FA 		uxth	r10, r3
 242 012e DDF84480 		ldr	r8, [sp, #68]
 243 0132 0D9F     		ldr	r7, [sp, #52]
 244 0134 08EB8703 		add	r3, r8, r7, lsl #2
 245 0138 6A4A     		ldr	r2, .L96+8
 246 013a 82FB0312 		smull	r1, r2, r2, r3
 247 013e DB17     		asrs	r3, r3, #31
 248 0140 C3EB6203 		rsb	r3, r3, r2, asr #1
 249 0144 80B2     		uxth	r0, r0
 250 0146 4946     		mov	r1, r9
 251 0148 5246     		mov	r2, r10
 252 014a 9BB2     		uxth	r3, r3
 253 014c FFF7FEFF 		bl	reflectance_set_threshold
 254              	.LVL19:
 414:main.c        ****     cal.l3 = (min[0] + max[0]*3)/4; cal.l1 = (min[1] + max[1]*3)/4; cal.r1 = (min[2] + max[2]*3)/4;
 255              		.loc 1 414 0
 256 0150 06EB4603 		add	r3, r6, r6, lsl #1
 257 0154 1BEB0303 		adds	r3, fp, r3
 258 0158 00D5     		bpl	.L17
 259 015a 0333     		adds	r3, r3, #3
 260              	.L17:
 261 015c 9B10     		asrs	r3, r3, #2
 262 015e 0893     		str	r3, [sp, #32]
 263 0160 07EB4703 		add	r3, r7, r7, lsl #1
 264 0164 18EB0303 		adds	r3, r8, r3
 265 0168 00D5     		bpl	.L18
 266 016a 0333     		adds	r3, r3, #3
 267              	.L18:
 268 016c 9B10     		asrs	r3, r3, #2
ARM GAS  C:\Users\TRIPHE~1\AppData\Local\Temp\ccmugB4z.s 			page 13


 269 016e 0993     		str	r3, [sp, #36]
 415:main.c        ****     printf("%d %d %d %d\n", min[0], min[1], min[2], min[3]);
 270              		.loc 1 415 0
 271 0170 CDF80080 		str	r8, [sp]
 272 0174 5C48     		ldr	r0, .L96+12
 273 0176 5946     		mov	r1, fp
 274 0178 DDF80C80 		ldr	r8, [sp, #12]
 275 017c 4246     		mov	r2, r8
 276 017e 2B46     		mov	r3, r5
 277 0180 FFF7FEFF 		bl	printf
 278              	.LVL20:
 416:main.c        ****     printf("%d %d %d %d\n", max[0], max[1], max[2], max[3]);
 279              		.loc 1 416 0
 280 0184 0097     		str	r7, [sp]
 281 0186 5848     		ldr	r0, .L96+12
 282 0188 3146     		mov	r1, r6
 283 018a 049A     		ldr	r2, [sp, #16]
 284 018c 069B     		ldr	r3, [sp, #24]
 285 018e FFF7FEFF 		bl	printf
 286              	.LVL21:
 417:main.c        ****     printf("%d %d %d %d\n", (min[0] + max[0]*3)/4, (min[1] + max[1]*3)/4, (min[2] + max[2]*3)/4, (m
 287              		.loc 1 417 0
 288 0192 099B     		ldr	r3, [sp, #36]
 289 0194 0093     		str	r3, [sp]
 290 0196 5448     		ldr	r0, .L96+12
 291 0198 0899     		ldr	r1, [sp, #32]
 292 019a 059F     		ldr	r7, [sp, #20]
 293 019c 3A46     		mov	r2, r7
 294 019e 079E     		ldr	r6, [sp, #28]
 295 01a0 3346     		mov	r3, r6
 296 01a2 FFF7FEFF 		bl	printf
 297              	.LVL22:
 418:main.c        ****     mina = ((min[1] + max[1]*3)/4 - min[1] + (min[2] + max[2]*3)/4 - min[2])/((max_speed + 1) * 2);
 298              		.loc 1 418 0
 299 01a6 4246     		mov	r2, r8
 300 01a8 BB1A     		subs	r3, r7, r2
 301 01aa 3246     		mov	r2, r6
 302 01ac 1A44     		add	r2, r2, r3
 303 01ae 531B     		subs	r3, r2, r5
 304 01b0 01D5     		bpl	.L19
 305 01b2 03F2FF13 		addw	r3, r3, #511
 306              	.L19:
 307 01b6 4FEA6328 		asr	r8, r3, #9
 308              	.LVL23:
 309              	.L21:
 419:main.c        ****     do {
 420:main.c        ****         motor_static_turn_l(1);
 310              		.loc 1 420 0 discriminator 2
 311 01ba 0120     		movs	r0, #1
 312 01bc FFF7FEFF 		bl	motor_static_turn_l
 313              	.LVL24:
 421:main.c        ****         reflectance_digital(&ref);
 314              		.loc 1 421 0 discriminator 2
 315 01c0 12A8     		add	r0, sp, #72
 316 01c2 FFF7FEFF 		bl	reflectance_digital
 317              	.LVL25:
 422:main.c        **** //        printf("Finding the route...\n%d %d\n", ref.l1, ref.r1);
ARM GAS  C:\Users\TRIPHE~1\AppData\Local\Temp\ccmugB4z.s 			page 14


 423:main.c        ****     } while(ref.r1 != 0 && ref.l1 != 0);
 318              		.loc 1 423 0 discriminator 2
 319 01c6 BDF84C30 		ldrh	r3, [sp, #76]
 320 01ca 002B     		cmp	r3, #0
 321 01cc 00F09A80 		beq	.L78
 322              		.loc 1 423 0 is_stmt 0 discriminator 1
 323 01d0 BDF84A30 		ldrh	r3, [sp, #74]
 324 01d4 002B     		cmp	r3, #0
 325 01d6 F0D1     		bne	.L21
 326 01d8 4FF0FF35 		mov	r5, #-1
 327 01dc 0026     		movs	r6, #0
 328 01de 0396     		str	r6, [sp, #12]	@ float
 329 01e0 94E0     		b	.L20
 330              	.LVL26:
 331              	.L34:
 424:main.c        ****     while (!(ref.l1 == 0 && ref.r1 == 0 && ref.l3 == 0 && ref.r3 == 0))
 425:main.c        ****     {
 426:main.c        ****                 reflectance_read(&ref);
 332              		.loc 1 426 0 is_stmt 1
 333 01e2 12A8     		add	r0, sp, #72
 334 01e4 FFF7FEFF 		bl	reflectance_read
 335              	.LVL27:
 427:main.c        ****                 i = (cal.l1 - ref.l1)/mina; j = (cal.r1 - ref.r1)/mina;
 336              		.loc 1 427 0
 337 01e8 BDF84A30 		ldrh	r3, [sp, #74]
 338 01ec C3EB0903 		rsb	r3, r3, r9
 339 01f0 93FBF8F3 		sdiv	r3, r3, r8
 340              	.LVL28:
 341 01f4 BDF84C00 		ldrh	r0, [sp, #76]
 342 01f8 C0EB0A00 		rsb	r0, r0, r10
 343 01fc 90FBF8F0 		sdiv	r0, r0, r8
 344              	.LVL29:
 428:main.c        ****                 if (time >= 1 || time == -1)
 345              		.loc 1 428 0
 346 0200 002D     		cmp	r5, #0
 347 0202 02DC     		bgt	.L22
 348              		.loc 1 428 0 is_stmt 0 discriminator 1
 349 0204 B5F1FF3F 		cmp	r5, #-1
 350 0208 44D1     		bne	.L23
 351              	.L22:
 429:main.c        ****                 {
 430:main.c        ****                     if (time == -1) time = 1;
 352              		.loc 1 430 0 is_stmt 1
 353 020a B5F1FF3F 		cmp	r5, #-1
 354 020e 00D1     		bne	.L24
 355 0210 0125     		movs	r5, #1
 356              	.LVL30:
 357              	.L24:
 431:main.c        ****                     if (i <= 5) i = 0; if (j <= 5) j = 0;
 358              		.loc 1 431 0
 359 0212 052B     		cmp	r3, #5
 360 0214 00DC     		bgt	.L25
 361 0216 0023     		movs	r3, #0
 362              	.LVL31:
 363              	.L25:
 364              		.loc 1 431 0 is_stmt 0 discriminator 3
 365 0218 0528     		cmp	r0, #5
ARM GAS  C:\Users\TRIPHE~1\AppData\Local\Temp\ccmugB4z.s 			page 15


 366 021a 00DC     		bgt	.L26
 367              		.loc 1 431 0
 368 021c 0020     		movs	r0, #0
 369              	.LVL32:
 370              	.L26:
 432:main.c        ****                     pred = diff;
 433:main.c        ****                     diff = j - i;
 371              		.loc 1 433 0 is_stmt 1
 372 021e C01A     		subs	r0, r0, r3
 373              	.LVL33:
 374 0220 FFF7FEFF 		bl	__aeabi_i2f
 375              	.LVL34:
 376 0224 0746     		mov	r7, r0
 377              	.LVL35:
 434:main.c        ****                     pro = diff * kp;
 378              		.loc 1 434 0
 379 0226 3149     		ldr	r1, .L96+16
 380 0228 FFF7FEFF 		bl	__aeabi_fmul
 381              	.LVL36:
 382 022c 8346     		mov	fp, r0
 383              	.LVL37:
 435:main.c        ****                     aval += diff*time;
 384              		.loc 1 435 0
 385 022e 2846     		mov	r0, r5
 386              	.LVL38:
 387 0230 FFF7FEFF 		bl	__aeabi_i2f
 388              	.LVL39:
 389 0234 0546     		mov	r5, r0
 390              	.LVL40:
 391 0236 3946     		mov	r1, r7
 392 0238 FFF7FEFF 		bl	__aeabi_fmul
 393              	.LVL41:
 394 023c 0146     		mov	r1, r0
 395 023e 3046     		mov	r0, r6
 396 0240 FFF7FEFF 		bl	__aeabi_fadd
 397              	.LVL42:
 398 0244 0646     		mov	r6, r0
 399              	.LVL43:
 436:main.c        ****                     if (aval > limit) aval = limit;
 400              		.loc 1 436 0
 401 0246 2A49     		ldr	r1, .L96+20
 402 0248 FFF7FEFF 		bl	__aeabi_fcmpgt
 403              	.LVL44:
 404 024c 00B1     		cbz	r0, .L27
 405 024e 284E     		ldr	r6, .L96+20
 406              	.LVL45:
 407              	.L27:
 437:main.c        ****                     if (aval < -limit) aval = -limit;
 408              		.loc 1 437 0
 409 0250 3046     		mov	r0, r6
 410 0252 2849     		ldr	r1, .L96+24
 411 0254 FFF7FEFF 		bl	__aeabi_fcmplt
 412              	.LVL46:
 413 0258 00B1     		cbz	r0, .L28
 414 025a 264E     		ldr	r6, .L96+24
 415              	.LVL47:
 416              	.L28:
ARM GAS  C:\Users\TRIPHE~1\AppData\Local\Temp\ccmugB4z.s 			page 16


 438:main.c        ****                     integral = aval*ki;
 417              		.loc 1 438 0
 418 025c 3046     		mov	r0, r6
 419 025e 2649     		ldr	r1, .L96+28
 420 0260 FFF7FEFF 		bl	__aeabi_fmul
 421              	.LVL48:
 422 0264 0446     		mov	r4, r0
 423              	.LVL49:
 439:main.c        ****                     derv = (diff - pred)/time;
 424              		.loc 1 439 0
 425 0266 3846     		mov	r0, r7
 426              	.LVL50:
 427 0268 0399     		ldr	r1, [sp, #12]	@ float
 428 026a FFF7FEFF 		bl	__aeabi_fsub
 429              	.LVL51:
 430 026e 2946     		mov	r1, r5
 431 0270 FFF7FEFF 		bl	__aeabi_fdiv
 432              	.LVL52:
 440:main.c        ****                     derv *= kd;
 433              		.loc 1 440 0
 434 0274 2149     		ldr	r1, .L96+32
 435 0276 FFF7FEFF 		bl	__aeabi_fmul
 436              	.LVL53:
 437 027a 0546     		mov	r5, r0
 438              	.LVL54:
 441:main.c        ****                     driver = (pro + integral + derv);
 439              		.loc 1 441 0
 440 027c 5846     		mov	r0, fp
 441              	.LVL55:
 442 027e 2146     		mov	r1, r4
 443 0280 FFF7FEFF 		bl	__aeabi_fadd
 444              	.LVL56:
 445 0284 2946     		mov	r1, r5
 446 0286 FFF7FEFF 		bl	__aeabi_fadd
 447              	.LVL57:
 448 028a FFF7FEFF 		bl	__aeabi_f2iz
 449              	.LVL58:
 450 028e 0446     		mov	r4, r0
 451              	.LVL59:
 433:main.c        ****                     pro = diff * kp;
 452              		.loc 1 433 0
 453 0290 0397     		str	r7, [sp, #12]	@ float
 454              	.LVL60:
 442:main.c        ****                     time = 0;
 455              		.loc 1 442 0
 456 0292 0025     		movs	r5, #0
 457              	.LVL61:
 458              	.L23:
 443:main.c        ****                 }
 444:main.c        **** //                printf("%d %d %d\n%d\n", pro, integral, derv, driver);
 445:main.c        ****                 if (driver > max_speed*2) driver = max_speed*2;
 459              		.loc 1 445 0
 460 0294 B4F5FF7F 		cmp	r4, #510
 461 0298 01DD     		ble	.L29
 462 029a 4FF4FF74 		mov	r4, #510
 463              	.LVL62:
 464              	.L29:
ARM GAS  C:\Users\TRIPHE~1\AppData\Local\Temp\ccmugB4z.s 			page 17


 446:main.c        ****                 if (driver < -max_speed*2) driver = -max_speed*2;
 465              		.loc 1 446 0
 466 029e 14F5FF7F 		cmn	r4, #510
 467 02a2 00DA     		bge	.L30
 468 02a4 164C     		ldr	r4, .L96+36
 469              	.LVL63:
 470              	.L30:
 447:main.c        ****                 if (driver > breaking_point) motor_turn(max_speed - driver, max_speed, 1);
 471              		.loc 1 447 0
 472 02a6 002C     		cmp	r4, #0
 473 02a8 06DD     		ble	.L31
 474              		.loc 1 447 0 is_stmt 0 discriminator 1
 475 02aa C4F1FF00 		rsb	r0, r4, #255
 476 02ae FF21     		movs	r1, #255
 477 02b0 0122     		movs	r2, #1
 478 02b2 FFF7FEFF 		bl	motor_turn
 479              	.LVL64:
 480 02b6 0BE0     		b	.L32
 481              	.L31:
 448:main.c        ****                 else if (driver < -breaking_point) motor_turn(max_speed, max_speed + driver, 1);
 482              		.loc 1 448 0 is_stmt 1
 483 02b8 002C     		cmp	r4, #0
 484 02ba 05DA     		bge	.L33
 485              		.loc 1 448 0 is_stmt 0 discriminator 1
 486 02bc FF20     		movs	r0, #255
 487 02be 2118     		adds	r1, r4, r0
 488 02c0 0122     		movs	r2, #1
 489 02c2 FFF7FEFF 		bl	motor_turn
 490              	.LVL65:
 491 02c6 03E0     		b	.L32
 492              	.L33:
 449:main.c        ****                 else motor_forward(max_speed, 1);
 493              		.loc 1 449 0 is_stmt 1
 494 02c8 FF20     		movs	r0, #255
 495 02ca 0121     		movs	r1, #1
 496 02cc FFF7FEFF 		bl	motor_forward
 497              	.LVL66:
 498              	.L32:
 450:main.c        ****                 time += 1;
 499              		.loc 1 450 0
 500 02d0 0135     		adds	r5, r5, #1
 501              	.LVL67:
 451:main.c        ****                 reflectance_digital(&ref);
 502              		.loc 1 451 0
 503 02d2 12A8     		add	r0, sp, #72
 504 02d4 FFF7FEFF 		bl	reflectance_digital
 505              	.LVL68:
 506 02d8 18E0     		b	.L20
 507              	.L97:
 508 02da 00BF     		.align	2
 509              	.L96:
 510 02dc 00000000 		.word	.LANCHOR0
 511 02e0 00000000 		.word	sensor_isr_handler
 512 02e4 67666666 		.word	1717986919
 513 02e8 00000000 		.word	.LC1
 514 02ec 0000E03F 		.word	1071644672
 515 02f0 00409C46 		.word	1184645120
ARM GAS  C:\Users\TRIPHE~1\AppData\Local\Temp\ccmugB4z.s 			page 18


 516 02f4 00409CC6 		.word	-962838528
 517 02f8 CDCCCC3C 		.word	1020054733
 518 02fc 0000C841 		.word	1103626240
 519 0300 02FEFFFF 		.word	-510
 520              	.LVL69:
 521              	.L78:
 522 0304 4FF0FF35 		mov	r5, #-1
 523 0308 0026     		movs	r6, #0
 524 030a 0396     		str	r6, [sp, #12]	@ float
 525              	.LVL70:
 526              	.L20:
 424:main.c        ****     {
 527              		.loc 1 424 0
 528 030c BDF84A30 		ldrh	r3, [sp, #74]
 529 0310 002B     		cmp	r3, #0
 530 0312 7FF466AF 		bne	.L34
 424:main.c        ****     {
 531              		.loc 1 424 0 is_stmt 0 discriminator 1
 532 0316 BDF84C30 		ldrh	r3, [sp, #76]
 533 031a 002B     		cmp	r3, #0
 534 031c 7FF461AF 		bne	.L34
 424:main.c        ****     {
 535              		.loc 1 424 0 discriminator 2
 536 0320 BDF84830 		ldrh	r3, [sp, #72]
 537 0324 002B     		cmp	r3, #0
 538 0326 7FF45CAF 		bne	.L34
 424:main.c        ****     {
 539              		.loc 1 424 0 discriminator 3
 540 032a BDF84E30 		ldrh	r3, [sp, #78]
 541 032e 002B     		cmp	r3, #0
 542 0330 7FF457AF 		bne	.L34
 543              	.LVL71:
 452:main.c        ****     }
 453:main.c        ****     aval = 0; pred = 0;
 454:main.c        ****     motor_stop();
 544              		.loc 1 454 0 is_stmt 1
 545 0334 FFF7FEFF 		bl	motor_stop
 546              	.LVL72:
 455:main.c        ****     get_IR();
 547              		.loc 1 455 0
 548 0338 FFF7FEFF 		bl	get_IR
 549              	.LVL73:
 456:main.c        ****     motor_start();
 550              		.loc 1 456 0
 551 033c FFF7FEFF 		bl	motor_start
 552              	.LVL74:
 553              	.L36:
 457:main.c        ****     do {motor_forward(255, 1); reflectance_digital(&ref);} while (ref.l3 == 0 && ref.r3 == 0);
 554              		.loc 1 457 0 discriminator 2
 555 0340 FF20     		movs	r0, #255
 556 0342 0121     		movs	r1, #1
 557 0344 FFF7FEFF 		bl	motor_forward
 558              	.LVL75:
 559 0348 12A8     		add	r0, sp, #72
 560 034a FFF7FEFF 		bl	reflectance_digital
 561              	.LVL76:
 562 034e BDF84830 		ldrh	r3, [sp, #72]
ARM GAS  C:\Users\TRIPHE~1\AppData\Local\Temp\ccmugB4z.s 			page 19


 563 0352 1BB9     		cbnz	r3, .L35
 564              		.loc 1 457 0 is_stmt 0 discriminator 1
 565 0354 BDF84E30 		ldrh	r3, [sp, #78]
 566 0358 002B     		cmp	r3, #0
 567 035a F1D0     		beq	.L36
 568              	.L35:
 569 035c 4FF0000B 		mov	fp, #0
 570 0360 5F46     		mov	r7, fp
 571 0362 0023     		movs	r3, #0
 572 0364 0493     		str	r3, [sp, #16]	@ float
 573              	.LVL77:
 574              	.L37:
 458:main.c        ****     for(;;)
 459:main.c        ****     {
 460:main.c        ****         ADC_Battery_StartConvert();
 575              		.loc 1 460 0 is_stmt 1
 576 0366 FFF7FEFF 		bl	ADC_Battery_StartConvert
 577              	.LVL78:
 461:main.c        ****         if(ADC_Battery_IsEndConversion(ADC_Battery_WAIT_FOR_RESULT)) 
 578              		.loc 1 461 0
 579 036a 0020     		movs	r0, #0
 580 036c FFF7FEFF 		bl	ADC_Battery_IsEndConversion
 581              	.LVL79:
 582 0370 78B1     		cbz	r0, .L38
 462:main.c        ****         {
 463:main.c        ****             adcresult = ADC_Battery_GetResult16();
 583              		.loc 1 463 0
 584 0372 FFF7FEFF 		bl	ADC_Battery_GetResult16
 585              	.LVL80:
 586 0376 0646     		mov	r6, r0
 587              	.LVL81:
 464:main.c        ****             volts = ADC_Battery_CountsTo_Volts(adcresult);                  // convert value to Vol
 588              		.loc 1 464 0
 589 0378 FFF7FEFF 		bl	ADC_Battery_CountsTo_Volts
 590              	.LVL82:
 465:main.c        ****             adcresult *= 1.5;
 591              		.loc 1 465 0
 592 037c 3046     		mov	r0, r6
 593 037e FFF7FEFF 		bl	__aeabi_i2d
 594              	.LVL83:
 595 0382 0022     		movs	r2, #0
 596 0384 A04B     		ldr	r3, .L98
 597 0386 FFF7FEFF 		bl	__aeabi_dmul
 598              	.LVL84:
 599 038a FFF7FEFF 		bl	__aeabi_d2iz
 600              	.LVL85:
 601 038e 1FFA80FB 		uxth	fp, r0
 602              	.LVL86:
 603              	.L38:
 466:main.c        ****         }
 467:main.c        ****         if (adcresult > 5) 
 604              		.loc 1 467 0
 605 0392 0FFA8BF3 		sxth	r3, fp
 606 0396 052B     		cmp	r3, #5
 607 0398 40F32F81 		ble	.L39
 468:main.c        ****         {
 469:main.c        ****             reflectance_digital(&ref);
ARM GAS  C:\Users\TRIPHE~1\AppData\Local\Temp\ccmugB4z.s 			page 20


 608              		.loc 1 469 0
 609 039c 12A8     		add	r0, sp, #72
 610 039e FFF7FEFF 		bl	reflectance_digital
 611              	.LVL87:
 470:main.c        ****             if (ref.r3 == 1 && ref.l3 == 1) 
 612              		.loc 1 470 0
 613 03a2 BDF84E30 		ldrh	r3, [sp, #78]
 614 03a6 012B     		cmp	r3, #1
 615 03a8 7ED1     		bne	.L40
 616              		.loc 1 470 0 is_stmt 0 discriminator 1
 617 03aa BDF84820 		ldrh	r2, [sp, #72]
 618 03ae 012A     		cmp	r2, #1
 619 03b0 7AD1     		bne	.L40
 471:main.c        ****             {
 472:main.c        ****                 reflectance_read(&ref);
 620              		.loc 1 472 0 is_stmt 1
 621 03b2 12A8     		add	r0, sp, #72
 622 03b4 FFF7FEFF 		bl	reflectance_read
 623              	.LVL88:
 473:main.c        ****                 i = (cal.l1 - ref.l1)/mina; j = (cal.r1 - ref.r1)/mina;
 624              		.loc 1 473 0
 625 03b8 BDF84A30 		ldrh	r3, [sp, #74]
 626 03bc C3EB0903 		rsb	r3, r3, r9
 627 03c0 93FBF8F3 		sdiv	r3, r3, r8
 628              	.LVL89:
 629 03c4 BDF84C00 		ldrh	r0, [sp, #76]
 630 03c8 C0EB0A00 		rsb	r0, r0, r10
 631 03cc 90FBF8F0 		sdiv	r0, r0, r8
 632              	.LVL90:
 474:main.c        ****                 if (time >= 1 || time == -1)
 633              		.loc 1 474 0
 634 03d0 002D     		cmp	r5, #0
 635 03d2 02DC     		bgt	.L41
 636              		.loc 1 474 0 is_stmt 0 discriminator 1
 637 03d4 B5F1FF3F 		cmp	r5, #-1
 638 03d8 46D1     		bne	.L42
 639              	.L41:
 475:main.c        ****                 {
 476:main.c        ****                     if (time == -1) time = 1;
 640              		.loc 1 476 0 is_stmt 1
 641 03da B5F1FF3F 		cmp	r5, #-1
 642 03de 00D1     		bne	.L43
 643 03e0 0125     		movs	r5, #1
 644              	.LVL91:
 645              	.L43:
 477:main.c        ****                     if (i <= 5) i = 0; if (j <= 5) j = 0;
 646              		.loc 1 477 0
 647 03e2 052B     		cmp	r3, #5
 648 03e4 00DC     		bgt	.L44
 649 03e6 0023     		movs	r3, #0
 650              	.LVL92:
 651              	.L44:
 652              		.loc 1 477 0 is_stmt 0 discriminator 3
 653 03e8 0528     		cmp	r0, #5
 654 03ea 00DC     		bgt	.L45
 655              		.loc 1 477 0
 656 03ec 0020     		movs	r0, #0
ARM GAS  C:\Users\TRIPHE~1\AppData\Local\Temp\ccmugB4z.s 			page 21


 657              	.LVL93:
 658              	.L45:
 478:main.c        ****                     pred = diff;
 479:main.c        ****                     diff = j - i;
 659              		.loc 1 479 0 is_stmt 1
 660 03ee C01A     		subs	r0, r0, r3
 661              	.LVL94:
 662 03f0 FFF7FEFF 		bl	__aeabi_i2f
 663              	.LVL95:
 664 03f4 0646     		mov	r6, r0
 665              	.LVL96:
 480:main.c        ****                     pro = diff * kp;
 666              		.loc 1 480 0
 667 03f6 8549     		ldr	r1, .L98+4
 668 03f8 FFF7FEFF 		bl	__aeabi_fmul
 669              	.LVL97:
 670 03fc 0590     		str	r0, [sp, #20]	@ float
 671              	.LVL98:
 481:main.c        ****                     aval += diff*time;
 672              		.loc 1 481 0
 673 03fe 2846     		mov	r0, r5
 674              	.LVL99:
 675 0400 FFF7FEFF 		bl	__aeabi_i2f
 676              	.LVL100:
 677 0404 0446     		mov	r4, r0
 678              	.LVL101:
 679 0406 3146     		mov	r1, r6
 680 0408 FFF7FEFF 		bl	__aeabi_fmul
 681              	.LVL102:
 682 040c 0146     		mov	r1, r0
 683 040e 0498     		ldr	r0, [sp, #16]	@ float
 684 0410 FFF7FEFF 		bl	__aeabi_fadd
 685              	.LVL103:
 686 0414 0490     		str	r0, [sp, #16]	@ float
 687              	.LVL104:
 482:main.c        ****                     if (aval > limit) aval = limit;
 688              		.loc 1 482 0
 689 0416 7E49     		ldr	r1, .L98+8
 690 0418 FFF7FEFF 		bl	__aeabi_fcmpgt
 691              	.LVL105:
 692 041c 08B1     		cbz	r0, .L46
 693 041e 7C4B     		ldr	r3, .L98+8
 694 0420 0493     		str	r3, [sp, #16]	@ float
 695              	.LVL106:
 696              	.L46:
 483:main.c        ****                     if (aval < -limit) aval = -limit;
 697              		.loc 1 483 0
 698 0422 0498     		ldr	r0, [sp, #16]	@ float
 699 0424 7B49     		ldr	r1, .L98+12
 700 0426 FFF7FEFF 		bl	__aeabi_fcmplt
 701              	.LVL107:
 702 042a 08B1     		cbz	r0, .L47
 703 042c 794B     		ldr	r3, .L98+12
 704 042e 0493     		str	r3, [sp, #16]	@ float
 705              	.LVL108:
 706              	.L47:
 484:main.c        ****                     integral = aval*ki;
ARM GAS  C:\Users\TRIPHE~1\AppData\Local\Temp\ccmugB4z.s 			page 22


 707              		.loc 1 484 0
 708 0430 0498     		ldr	r0, [sp, #16]	@ float
 709 0432 7949     		ldr	r1, .L98+16
 710 0434 FFF7FEFF 		bl	__aeabi_fmul
 711              	.LVL109:
 712 0438 0546     		mov	r5, r0
 713              	.LVL110:
 485:main.c        ****                     derv = (diff - pred)/time;
 714              		.loc 1 485 0
 715 043a 3046     		mov	r0, r6
 716              	.LVL111:
 717 043c 0399     		ldr	r1, [sp, #12]	@ float
 718 043e FFF7FEFF 		bl	__aeabi_fsub
 719              	.LVL112:
 720 0442 2146     		mov	r1, r4
 721 0444 FFF7FEFF 		bl	__aeabi_fdiv
 722              	.LVL113:
 486:main.c        ****                     derv *= kd;
 723              		.loc 1 486 0
 724 0448 7449     		ldr	r1, .L98+20
 725 044a FFF7FEFF 		bl	__aeabi_fmul
 726              	.LVL114:
 727 044e 0446     		mov	r4, r0
 728              	.LVL115:
 487:main.c        ****                     driver = (pro + integral + derv);
 729              		.loc 1 487 0
 730 0450 0598     		ldr	r0, [sp, #20]	@ float
 731              	.LVL116:
 732 0452 2946     		mov	r1, r5
 733 0454 FFF7FEFF 		bl	__aeabi_fadd
 734              	.LVL117:
 735 0458 2146     		mov	r1, r4
 736 045a FFF7FEFF 		bl	__aeabi_fadd
 737              	.LVL118:
 738 045e FFF7FEFF 		bl	__aeabi_f2iz
 739              	.LVL119:
 740 0462 0446     		mov	r4, r0
 741              	.LVL120:
 479:main.c        ****                     pro = diff * kp;
 742              		.loc 1 479 0
 743 0464 0396     		str	r6, [sp, #12]	@ float
 744              	.LVL121:
 488:main.c        ****                     time = 0;
 745              		.loc 1 488 0
 746 0466 0025     		movs	r5, #0
 747              	.LVL122:
 748              	.L42:
 489:main.c        ****                 }
 490:main.c        **** //                printf("%d %d %d\n%d\n", pro, integral, derv, driver);
 491:main.c        ****                 if (driver > max_speed*2) driver = max_speed*2;
 749              		.loc 1 491 0
 750 0468 B4F5FF7F 		cmp	r4, #510
 751 046c 01DD     		ble	.L48
 752 046e 4FF4FF74 		mov	r4, #510
 753              	.LVL123:
 754              	.L48:
 492:main.c        ****                 if (driver < -max_speed*2) driver = -max_speed*2;
ARM GAS  C:\Users\TRIPHE~1\AppData\Local\Temp\ccmugB4z.s 			page 23


 755              		.loc 1 492 0
 756 0472 14F5FF7F 		cmn	r4, #510
 757 0476 00DA     		bge	.L49
 758 0478 694C     		ldr	r4, .L98+24
 759              	.LVL124:
 760              	.L49:
 493:main.c        ****                 if (driver > breaking_point) motor_turn(max_speed - driver, max_speed, 1);
 761              		.loc 1 493 0
 762 047a 002C     		cmp	r4, #0
 763 047c 06DD     		ble	.L50
 764              		.loc 1 493 0 is_stmt 0 discriminator 1
 765 047e C4F1FF00 		rsb	r0, r4, #255
 766 0482 FF21     		movs	r1, #255
 767 0484 0122     		movs	r2, #1
 768 0486 FFF7FEFF 		bl	motor_turn
 769              	.LVL125:
 770 048a 0BE0     		b	.L51
 771              	.L50:
 494:main.c        ****                 else if (driver < -breaking_point) motor_turn(max_speed, max_speed + driver, 1);
 772              		.loc 1 494 0 is_stmt 1
 773 048c 002C     		cmp	r4, #0
 774 048e 05DA     		bge	.L52
 775              		.loc 1 494 0 is_stmt 0 discriminator 1
 776 0490 FF20     		movs	r0, #255
 777 0492 2118     		adds	r1, r4, r0
 778 0494 0122     		movs	r2, #1
 779 0496 FFF7FEFF 		bl	motor_turn
 780              	.LVL126:
 781 049a 03E0     		b	.L51
 782              	.L52:
 495:main.c        ****                 else motor_forward(max_speed, 1);
 783              		.loc 1 495 0 is_stmt 1
 784 049c FF20     		movs	r0, #255
 785 049e 0121     		movs	r1, #1
 786 04a0 FFF7FEFF 		bl	motor_forward
 787              	.LVL127:
 788              	.L51:
 496:main.c        ****                 time += 1;
 789              		.loc 1 496 0
 790 04a4 0135     		adds	r5, r5, #1
 791              	.LVL128:
 792 04a6 5EE7     		b	.L37
 793              	.L40:
 497:main.c        ****             }
 498:main.c        ****             else if (ref.r3 == 1)
 794              		.loc 1 498 0
 795 04a8 012B     		cmp	r3, #1
 796 04aa 50D1     		bne	.L54
 499:main.c        ****             {
 500:main.c        ****                 printf("Turning left\n");
 797              		.loc 1 500 0
 798 04ac 5D48     		ldr	r0, .L98+28
 799 04ae FFF7FEFF 		bl	puts
 800              	.LVL129:
 501:main.c        ****                 while (ref.l1 != 1 || ref.r1 != 1) 
 801              		.loc 1 501 0
 802 04b2 2FE0     		b	.L55
ARM GAS  C:\Users\TRIPHE~1\AppData\Local\Temp\ccmugB4z.s 			page 24


 803              	.L64:
 502:main.c        ****                 {                
 503:main.c        ****                     motor_forward(125, 2);
 804              		.loc 1 503 0
 805 04b4 7D20     		movs	r0, #125
 806 04b6 0221     		movs	r1, #2
 807 04b8 FFF7FEFF 		bl	motor_forward
 808              	.LVL130:
 504:main.c        ****                     if (ref.l3 == 0 && ref.r3 == 0) {
 809              		.loc 1 504 0
 810 04bc BDF84830 		ldrh	r3, [sp, #72]
 811 04c0 2BBB     		cbnz	r3, .L56
 812              		.loc 1 504 0 is_stmt 0 discriminator 1
 813 04c2 BDF84E30 		ldrh	r3, [sp, #78]
 814 04c6 13BB     		cbnz	r3, .L56
 505:main.c        ****                         if (count < 1) 
 815              		.loc 1 505 0 is_stmt 1
 816 04c8 002F     		cmp	r7, #0
 817 04ca 07DD     		ble	.L57
 818 04cc 1CE0     		b	.L93
 819              	.L59:
 506:main.c        ****                         {
 507:main.c        ****                             while (ref.l3 == 0 || ref.r3 == 0) {motor_forward(255, 1); reflectance_
 820              		.loc 1 507 0 discriminator 4
 821 04ce FF20     		movs	r0, #255
 822 04d0 0121     		movs	r1, #1
 823 04d2 FFF7FEFF 		bl	motor_forward
 824              	.LVL131:
 825 04d6 12A8     		add	r0, sp, #72
 826 04d8 FFF7FEFF 		bl	reflectance_digital
 827              	.LVL132:
 828              	.L57:
 829              		.loc 1 507 0 is_stmt 0 discriminator 1
 830 04dc BDF84830 		ldrh	r3, [sp, #72]
 831 04e0 002B     		cmp	r3, #0
 832 04e2 F4D0     		beq	.L59
 833              		.loc 1 507 0 discriminator 3
 834 04e4 BDF84E30 		ldrh	r3, [sp, #78]
 835 04e8 002B     		cmp	r3, #0
 836 04ea F0D0     		beq	.L59
 508:main.c        ****                             count++; for (i = 0; i < count; i++) {Beep(100, 100); CyDelay(10);}
 837              		.loc 1 508 0 is_stmt 1
 838 04ec 0137     		adds	r7, r7, #1
 839              	.LVL133:
 840 04ee 0026     		movs	r6, #0
 841 04f0 07E0     		b	.L60
 842              	.LVL134:
 843              	.L61:
 844              		.loc 1 508 0 is_stmt 0 discriminator 3
 845 04f2 6420     		movs	r0, #100
 846 04f4 0146     		mov	r1, r0
 847 04f6 FFF7FEFF 		bl	Beep
 848              	.LVL135:
 849 04fa 0A20     		movs	r0, #10
 850 04fc FFF7FEFF 		bl	CyDelay
 851              	.LVL136:
 852 0500 0136     		adds	r6, r6, #1
ARM GAS  C:\Users\TRIPHE~1\AppData\Local\Temp\ccmugB4z.s 			page 25


 853              	.LVL137:
 854              	.L60:
 855              		.loc 1 508 0 discriminator 1
 856 0502 BE42     		cmp	r6, r7
 857 0504 F5DB     		blt	.L61
 858 0506 0DE0     		b	.L62
 859              	.LVL138:
 860              	.L93:
 509:main.c        ****                             break;
 510:main.c        ****                         }
 511:main.c        ****                         else {motor_stop(); return 0;}
 861              		.loc 1 511 0 is_stmt 1
 862 0508 FFF7FEFF 		bl	motor_stop
 863              	.LVL139:
 864 050c 77E0     		b	.L63
 865              	.L56:
 512:main.c        ****                     }
 513:main.c        ****                     reflectance_digital(&ref);
 866              		.loc 1 513 0
 867 050e 12A8     		add	r0, sp, #72
 868 0510 FFF7FEFF 		bl	reflectance_digital
 869              	.LVL140:
 870              	.L55:
 501:main.c        ****                 {                
 871              		.loc 1 501 0
 872 0514 BDF84A30 		ldrh	r3, [sp, #74]
 873 0518 012B     		cmp	r3, #1
 874 051a CBD1     		bne	.L64
 501:main.c        ****                 {                
 875              		.loc 1 501 0 is_stmt 0 discriminator 1
 876 051c BDF84C30 		ldrh	r3, [sp, #76]
 877 0520 012B     		cmp	r3, #1
 878 0522 C7D1     		bne	.L64
 879              	.L62:
 514:main.c        ****                 };
 515:main.c        ****                 if (count == 0) 
 880              		.loc 1 515 0 is_stmt 1
 881 0524 4FB1     		cbz	r7, .L65
 882 0526 1EE7     		b	.L37
 883              	.L66:
 516:main.c        ****                 {
 517:main.c        ****                     while (ref.l1 != 0 && ref.r1 != 0) 
 518:main.c        ****                         {
 519:main.c        ****                             motor_turn(-100, 100, 1);
 884              		.loc 1 519 0
 885 0528 6FF06300 		mvn	r0, #99
 886 052c 6421     		movs	r1, #100
 887 052e 0122     		movs	r2, #1
 888 0530 FFF7FEFF 		bl	motor_turn
 889              	.LVL141:
 520:main.c        ****                             reflectance_digital(&ref);
 890              		.loc 1 520 0
 891 0534 12A8     		add	r0, sp, #72
 892 0536 FFF7FEFF 		bl	reflectance_digital
 893              	.LVL142:
 894              	.L65:
 517:main.c        ****                         {
ARM GAS  C:\Users\TRIPHE~1\AppData\Local\Temp\ccmugB4z.s 			page 26


 895              		.loc 1 517 0
 896 053a BDF84A30 		ldrh	r3, [sp, #74]
 897 053e 002B     		cmp	r3, #0
 898 0540 3FF411AF 		beq	.L37
 517:main.c        ****                         {
 899              		.loc 1 517 0 is_stmt 0 discriminator 1
 900 0544 BDF84C30 		ldrh	r3, [sp, #76]
 901 0548 002B     		cmp	r3, #0
 902 054a EDD1     		bne	.L66
 903 054c 0BE7     		b	.L37
 904              	.L54:
 521:main.c        ****                         }
 522:main.c        ****                         pred = 0;
 523:main.c        ****                         integral = 0;
 524:main.c        ****                 }
 525:main.c        ****             }
 526:main.c        ****             else if (ref.l3 == 1)
 905              		.loc 1 526 0 is_stmt 1
 906 054e BDF84830 		ldrh	r3, [sp, #72]
 907 0552 012B     		cmp	r3, #1
 908 0554 7FF407AF 		bne	.L37
 527:main.c        ****             {
 528:main.c        ****                 printf("Turning right\n");
 909              		.loc 1 528 0
 910 0558 3348     		ldr	r0, .L98+32
 911 055a FFF7FEFF 		bl	puts
 912              	.LVL143:
 529:main.c        ****                 while (ref.l1 != 1 || ref.r1 != 1) 
 913              		.loc 1 529 0
 914 055e 2FE0     		b	.L67
 915              	.L75:
 530:main.c        ****                 {                
 531:main.c        ****                     motor_forward(125, 2);
 916              		.loc 1 531 0
 917 0560 7D20     		movs	r0, #125
 918 0562 0221     		movs	r1, #2
 919 0564 FFF7FEFF 		bl	motor_forward
 920              	.LVL144:
 532:main.c        ****                     if (ref.l3 == 0 && ref.r3 == 0) {
 921              		.loc 1 532 0
 922 0568 BDF84830 		ldrh	r3, [sp, #72]
 923 056c 2BBB     		cbnz	r3, .L68
 924              		.loc 1 532 0 is_stmt 0 discriminator 1
 925 056e BDF84E30 		ldrh	r3, [sp, #78]
 926 0572 13BB     		cbnz	r3, .L68
 533:main.c        ****                         if(count < 1) 
 927              		.loc 1 533 0 is_stmt 1
 928 0574 002F     		cmp	r7, #0
 929 0576 07DD     		ble	.L69
 930 0578 1CE0     		b	.L94
 931              	.L71:
 534:main.c        ****                         {
 535:main.c        ****                             while (ref.l3 == 0 || ref.r3 == 0) {motor_forward(255, 1); reflectance_
 932              		.loc 1 535 0 discriminator 4
 933 057a FF20     		movs	r0, #255
 934 057c 0121     		movs	r1, #1
 935 057e FFF7FEFF 		bl	motor_forward
ARM GAS  C:\Users\TRIPHE~1\AppData\Local\Temp\ccmugB4z.s 			page 27


 936              	.LVL145:
 937 0582 12A8     		add	r0, sp, #72
 938 0584 FFF7FEFF 		bl	reflectance_digital
 939              	.LVL146:
 940              	.L69:
 941              		.loc 1 535 0 is_stmt 0 discriminator 1
 942 0588 BDF84830 		ldrh	r3, [sp, #72]
 943 058c 002B     		cmp	r3, #0
 944 058e F4D0     		beq	.L71
 945              		.loc 1 535 0 discriminator 3
 946 0590 BDF84E30 		ldrh	r3, [sp, #78]
 947 0594 002B     		cmp	r3, #0
 948 0596 F0D0     		beq	.L71
 536:main.c        ****                             count++;  for (i = 0; i < count; i++) {Beep(100, 100); CyDelay(10);}
 949              		.loc 1 536 0 is_stmt 1
 950 0598 0137     		adds	r7, r7, #1
 951              	.LVL147:
 952 059a 0026     		movs	r6, #0
 953 059c 07E0     		b	.L72
 954              	.LVL148:
 955              	.L73:
 956              		.loc 1 536 0 is_stmt 0 discriminator 3
 957 059e 6420     		movs	r0, #100
 958 05a0 0146     		mov	r1, r0
 959 05a2 FFF7FEFF 		bl	Beep
 960              	.LVL149:
 961 05a6 0A20     		movs	r0, #10
 962 05a8 FFF7FEFF 		bl	CyDelay
 963              	.LVL150:
 964 05ac 0136     		adds	r6, r6, #1
 965              	.LVL151:
 966              	.L72:
 967              		.loc 1 536 0 discriminator 1
 968 05ae BE42     		cmp	r6, r7
 969 05b0 F5DB     		blt	.L73
 970 05b2 0DE0     		b	.L74
 971              	.LVL152:
 972              	.L94:
 537:main.c        ****                             break;
 538:main.c        ****                         }
 539:main.c        ****                         else {motor_stop(); return 0;}
 973              		.loc 1 539 0 is_stmt 1
 974 05b4 FFF7FEFF 		bl	motor_stop
 975              	.LVL153:
 976 05b8 21E0     		b	.L63
 977              	.L68:
 540:main.c        ****                     }
 541:main.c        ****                     reflectance_digital(&ref);
 978              		.loc 1 541 0
 979 05ba 12A8     		add	r0, sp, #72
 980 05bc FFF7FEFF 		bl	reflectance_digital
 981              	.LVL154:
 982              	.L67:
 529:main.c        ****                 {                
 983              		.loc 1 529 0
 984 05c0 BDF84A30 		ldrh	r3, [sp, #74]
 985 05c4 012B     		cmp	r3, #1
ARM GAS  C:\Users\TRIPHE~1\AppData\Local\Temp\ccmugB4z.s 			page 28


 986 05c6 CBD1     		bne	.L75
 529:main.c        ****                 {                
 987              		.loc 1 529 0 is_stmt 0 discriminator 1
 988 05c8 BDF84C30 		ldrh	r3, [sp, #76]
 989 05cc 012B     		cmp	r3, #1
 990 05ce C7D1     		bne	.L75
 991              	.L74:
 542:main.c        ****                 };
 543:main.c        ****                 if (count == 0) 
 992              		.loc 1 543 0 is_stmt 1
 993 05d0 4FB1     		cbz	r7, .L76
 994 05d2 C8E6     		b	.L37
 995              	.L77:
 544:main.c        ****                 {
 545:main.c        ****                     while (ref.l1 != 0 && ref.r1 != 0) 
 546:main.c        ****                         {
 547:main.c        ****                             motor_turn(-100, 100, 1);
 996              		.loc 1 547 0
 997 05d4 6FF06300 		mvn	r0, #99
 998 05d8 6421     		movs	r1, #100
 999 05da 0122     		movs	r2, #1
 1000 05dc FFF7FEFF 		bl	motor_turn
 1001              	.LVL155:
 548:main.c        ****                             reflectance_digital(&ref);
 1002              		.loc 1 548 0
 1003 05e0 12A8     		add	r0, sp, #72
 1004 05e2 FFF7FEFF 		bl	reflectance_digital
 1005              	.LVL156:
 1006              	.L76:
 545:main.c        ****                         {
 1007              		.loc 1 545 0
 1008 05e6 BDF84A30 		ldrh	r3, [sp, #74]
 1009 05ea 002B     		cmp	r3, #0
 1010 05ec 3FF4BBAE 		beq	.L37
 545:main.c        ****                         {
 1011              		.loc 1 545 0 is_stmt 0 discriminator 1
 1012 05f0 BDF84C30 		ldrh	r3, [sp, #76]
 1013 05f4 002B     		cmp	r3, #0
 1014 05f6 EDD1     		bne	.L77
 1015 05f8 B5E6     		b	.L37
 1016              	.L39:
 549:main.c        ****                         }
 550:main.c        ****                         pred = 0;
 551:main.c        ****                         integral = 0;
 552:main.c        ****                 }
 553:main.c        ****             }
 554:main.c        ****         }
 555:main.c        ****         else {motor_stop(); return 0;}
 1017              		.loc 1 555 0 is_stmt 1
 1018 05fa FFF7FEFF 		bl	motor_stop
 1019              	.LVL157:
 1020              	.L63:
 556:main.c        ****     }
 557:main.c        **** }
 1021              		.loc 1 557 0
 1022 05fe 0020     		movs	r0, #0
 1023 0600 15B0     		add	sp, sp, #84
ARM GAS  C:\Users\TRIPHE~1\AppData\Local\Temp\ccmugB4z.s 			page 29


 1024              		.cfi_def_cfa_offset 36
 1025              		@ sp needed
 1026 0602 BDE8F08F 		pop	{r4, r5, r6, r7, r8, r9, r10, fp, pc}
 1027              	.LVL158:
 1028              	.L99:
 1029 0606 00BF     		.align	2
 1030              	.L98:
 1031 0608 0000F83F 		.word	1073217536
 1032 060c 0000E03F 		.word	1071644672
 1033 0610 00409C46 		.word	1184645120
 1034 0614 00409CC6 		.word	-962838528
 1035 0618 CDCCCC3C 		.word	1020054733
 1036 061c 0000C841 		.word	1103626240
 1037 0620 02FEFFFF 		.word	-510
 1038 0624 10000000 		.word	.LC2
 1039 0628 20000000 		.word	.LC3
 1040              		.cfi_endproc
 1041              	.LFE63:
 1042              		.size	main, .-main
 1043              		.section	.text._write,"ax",%progbits
 1044              		.align	2
 1045              		.global	_write
 1046              		.thumb
 1047              		.thumb_func
 1048              		.type	_write, %function
 1049              	_write:
 1050              	.LFB64:
 558:main.c        **** 
 559:main.c        **** //*/
 560:main.c        **** /*//reflectance//
 561:main.c        **** int main()
 562:main.c        **** {
 563:main.c        ****     struct sensors_ ref;
 564:main.c        ****     struct sensors_ dig;
 565:main.c        ****     CyGlobalIntEnable; 
 566:main.c        ****     UART_1_Start();
 567:main.c        ****   
 568:main.c        ****     sensor_isr_StartEx(sensor_isr_handler);
 569:main.c        ****     
 570:main.c        ****     reflectance_start();
 571:main.c        **** 
 572:main.c        ****     IR_led_Write(1);
 573:main.c        ****     for(;;)
 574:main.c        ****     {
 575:main.c        ****         reflectance_read(&ref);
 576:main.c        ****         printf("%d %d %d %d \r\n", ref.l3, ref.l1, ref.r1, ref.r3);       //print out each period o
 577:main.c        ****         reflectance_digital(&dig);      //print out 0 or 1 according to results of reflectance peri
 578:main.c        ****         printf("%d %d %d %d \r\n", dig.l3, dig.l1, dig.r1, dig.r3);        //print out 0 or 1 accor
 579:main.c        ****         
 580:main.c        ****         CyDelay(50);
 581:main.c        ****     }
 582:main.c        **** }   
 583:main.c        **** //*/
 584:main.c        **** 
 585:main.c        ****  /* //motor//
 586:main.c        **** int main()
 587:main.c        **** {
ARM GAS  C:\Users\TRIPHE~1\AppData\Local\Temp\ccmugB4z.s 			page 30


 588:main.c        ****     CyGlobalIntEnable; 
 589:main.c        ****     UART_1_Start();
 590:main.c        **** 
 591:main.c        ****     motor_start();              // motor start
 592:main.c        **** 
 593:main.c        ****     motor_forward(100,2000);     // moving forward
 594:main.c        ****     motor_turn(200,50,2000);     // turn
 595:main.c        ****     motor_turn(50,200,2000);     // turn
 596:main.c        ****     motor_backward(100,2000);    // movinb backward
 597:main.c        ****        
 598:main.c        ****     motor_stop();               // motor stop
 599:main.c        ****     
 600:main.c        ****     for(;;)
 601:main.c        ****     {
 602:main.c        **** 
 603:main.c        ****     }
 604:main.c        **** }
 605:main.c        **** //*/
 606:main.c        ****     
 607:main.c        **** 
 608:main.c        **** /*//gyroscope//
 609:main.c        **** int main()
 610:main.c        **** {
 611:main.c        ****     CyGlobalIntEnable; 
 612:main.c        ****     UART_1_Start();
 613:main.c        ****   
 614:main.c        ****     I2C_Start();
 615:main.c        ****   
 616:main.c        ****     uint8 X_L_G, X_H_G, Y_L_G, Y_H_G, Z_L_G, Z_H_G;
 617:main.c        ****     int16 X_AXIS_G, Y_AXIS_G, Z_AXIS_G;
 618:main.c        ****     
 619:main.c        ****     I2C_write(GYRO_ADDR, GYRO_CTRL1_REG, 0x0F);             // set gyroscope into active mode
 620:main.c        ****     I2C_write(GYRO_ADDR, GYRO_CTRL4_REG, 0x30);             // set full scale selection to 2000dps 
 621:main.c        ****     
 622:main.c        ****     for(;;)
 623:main.c        ****     {
 624:main.c        ****         //print out gyroscope output
 625:main.c        ****         X_L_G = I2C_read(GYRO_ADDR, OUT_X_AXIS_L);
 626:main.c        ****         X_H_G = I2C_read(GYRO_ADDR, OUT_X_AXIS_H);
 627:main.c        ****         X_AXIS_G = convert_raw(X_H_G, X_L_G);
 628:main.c        ****         
 629:main.c        ****         
 630:main.c        ****         Y_L_G = I2C_read(GYRO_ADDR, OUT_Y_AXIS_L);
 631:main.c        ****         Y_H_G = I2C_read(GYRO_ADDR, OUT_Y_AXIS_H);
 632:main.c        ****         Y_AXIS_G = convert_raw(Y_H_G, Y_L_G);
 633:main.c        ****         
 634:main.c        ****         
 635:main.c        ****         Z_L_G = I2C_read(GYRO_ADDR, OUT_Z_AXIS_L);
 636:main.c        ****         Z_H_G = I2C_read(GYRO_ADDR, OUT_Z_AXIS_H);
 637:main.c        ****         Z_AXIS_G = convert_raw(Z_H_G, Z_L_G);
 638:main.c        ****      
 639:main.c        ****         // If you want to print value
 640:main.c        ****         printf("%d %d %d \r\n", X_AXIS_G, Y_AXIS_G, Z_AXIS_G);
 641:main.c        ****         CyDelay(50);
 642:main.c        ****     }
 643:main.c        **** }   
 644:main.c        **** //*/
ARM GAS  C:\Users\TRIPHE~1\AppData\Local\Temp\ccmugB4z.s 			page 31


 645:main.c        **** 
 646:main.c        **** 
 647:main.c        **** /*//magnetometer//
 648:main.c        **** int main()
 649:main.c        **** {
 650:main.c        ****     CyGlobalIntEnable; 
 651:main.c        ****     UART_1_Start();
 652:main.c        ****   
 653:main.c        ****     I2C_Start();
 654:main.c        ****    
 655:main.c        ****     uint8 X_L_M, X_H_M, Y_L_M, Y_H_M, Z_L_M, Z_H_M;
 656:main.c        ****     int16 X_AXIS, Y_AXIS, Z_AXIS;
 657:main.c        ****     
 658:main.c        ****     I2C_write(GYRO_ADDR, GYRO_CTRL1_REG, 0x0F);             // set gyroscope into active mode
 659:main.c        ****     I2C_write(GYRO_ADDR, GYRO_CTRL4_REG, 0x30);             // set full scale selection to 2000dps
 660:main.c        ****     I2C_write(ACCEL_MAG_ADDR, ACCEL_CTRL1_REG, 0x37);           // set accelerometer & magnetometer
 661:main.c        ****     I2C_write(ACCEL_MAG_ADDR, ACCEL_CTRL7_REG, 0x22);
 662:main.c        ****     
 663:main.c        ****     
 664:main.c        ****     for(;;)
 665:main.c        ****     {
 666:main.c        ****         X_L_M = I2C_read(ACCEL_MAG_ADDR, OUT_X_L_M);
 667:main.c        ****         X_H_M = I2C_read(ACCEL_MAG_ADDR, OUT_X_H_M);
 668:main.c        ****         X_AXIS = convert_raw(X_L_M, X_H_M);
 669:main.c        ****         
 670:main.c        ****         Y_L_M = I2C_read(ACCEL_MAG_ADDR, OUT_Y_L_M);
 671:main.c        ****         Y_H_M = I2C_read(ACCEL_MAG_ADDR, OUT_Y_H_M);
 672:main.c        ****         Y_AXIS = convert_raw(Y_L_M, Y_H_M);
 673:main.c        ****         
 674:main.c        ****         Z_L_M = I2C_read(ACCEL_MAG_ADDR, OUT_Z_L_M);
 675:main.c        ****         Z_H_M = I2C_read(ACCEL_MAG_ADDR, OUT_Z_H_M);
 676:main.c        ****         Z_AXIS = convert_raw(Z_L_M, Z_H_M);
 677:main.c        ****         
 678:main.c        ****         heading(X_AXIS, Y_AXIS);
 679:main.c        ****         printf("MAGNET: %d %d %d %d %d %d \r\n", X_L_M, X_H_M, Y_L_M, Y_H_M, Z_L_M, Z_H_M);
 680:main.c        ****         printf("%d %d %d \r\n", X_AXIS,Y_AXIS, Z_AXIS);
 681:main.c        ****         CyDelay(50);      
 682:main.c        ****     }
 683:main.c        **** }   
 684:main.c        **** //*/
 685:main.c        **** 
 686:main.c        **** 
 687:main.c        **** #if 0
 688:main.c        **** int rread(void)
 689:main.c        **** {
 690:main.c        ****     SC0_SetDriveMode(PIN_DM_STRONG);
 691:main.c        ****     SC0_Write(1);
 692:main.c        ****     CyDelayUs(10);
 693:main.c        ****     SC0_SetDriveMode(PIN_DM_DIG_HIZ);
 694:main.c        ****     Timer_1_Start();
 695:main.c        ****     uint16_t start = Timer_1_ReadCounter();
 696:main.c        ****     uint16_t end = 0;
 697:main.c        ****     while(!(Timer_1_ReadStatusRegister() & Timer_1_STATUS_TC)) {
 698:main.c        ****         if(SC0_Read() == 0 && end == 0) {
 699:main.c        ****             end = Timer_1_ReadCounter();
 700:main.c        ****         }
 701:main.c        ****     }
ARM GAS  C:\Users\TRIPHE~1\AppData\Local\Temp\ccmugB4z.s 			page 32


 702:main.c        ****     Timer_1_Stop();
 703:main.c        ****     
 704:main.c        ****     return (start - end);
 705:main.c        **** }
 706:main.c        **** #endif
 707:main.c        **** 
 708:main.c        **** /* Don't remove the functions below */
 709:main.c        **** int _write(int file, char *ptr, int len)
 710:main.c        **** {
 1051              		.loc 1 710 0
 1052              		.cfi_startproc
 1053              		@ args = 0, pretend = 0, frame = 0
 1054              		@ frame_needed = 0, uses_anonymous_args = 0
 1055              	.LVL159:
 1056 0000 F8B5     		push	{r3, r4, r5, r6, r7, lr}
 1057              		.cfi_def_cfa_offset 24
 1058              		.cfi_offset 3, -24
 1059              		.cfi_offset 4, -20
 1060              		.cfi_offset 5, -16
 1061              		.cfi_offset 6, -12
 1062              		.cfi_offset 7, -8
 1063              		.cfi_offset 14, -4
 1064 0002 0C46     		mov	r4, r1
 1065 0004 1746     		mov	r7, r2
 1066              	.LVL160:
 711:main.c        ****     (void)file; /* Parameter is not used, suppress unused argument warning */
 712:main.c        **** 	int n;
 713:main.c        **** 	for(n = 0; n < len; n++) {
 1067              		.loc 1 713 0
 1068 0006 0025     		movs	r5, #0
 1069 0008 0BE0     		b	.L101
 1070              	.LVL161:
 1071              	.L103:
 714:main.c        ****         if(*ptr == '\n') UART_1_PutChar('\r');
 1072              		.loc 1 714 0
 1073 000a 2378     		ldrb	r3, [r4]	@ zero_extendqisi2
 1074 000c 0A2B     		cmp	r3, #10
 1075 000e 02D1     		bne	.L102
 1076              		.loc 1 714 0 is_stmt 0 discriminator 1
 1077 0010 0D20     		movs	r0, #13
 1078 0012 FFF7FEFF 		bl	UART_1_PutChar
 1079              	.LVL162:
 1080              	.L102:
 715:main.c        **** 		UART_1_PutChar(*ptr++);
 1081              		.loc 1 715 0 is_stmt 1 discriminator 2
 1082 0016 661C     		adds	r6, r4, #1
 1083              	.LVL163:
 1084 0018 2078     		ldrb	r0, [r4]	@ zero_extendqisi2
 1085 001a FFF7FEFF 		bl	UART_1_PutChar
 1086              	.LVL164:
 713:main.c        ****         if(*ptr == '\n') UART_1_PutChar('\r');
 1087              		.loc 1 713 0 discriminator 2
 1088 001e 0135     		adds	r5, r5, #1
 1089              	.LVL165:
 1090              		.loc 1 715 0 discriminator 2
 1091 0020 3446     		mov	r4, r6
 1092              	.LVL166:
ARM GAS  C:\Users\TRIPHE~1\AppData\Local\Temp\ccmugB4z.s 			page 33


 1093              	.L101:
 713:main.c        ****         if(*ptr == '\n') UART_1_PutChar('\r');
 1094              		.loc 1 713 0 discriminator 1
 1095 0022 BD42     		cmp	r5, r7
 1096 0024 F1DB     		blt	.L103
 716:main.c        **** 	}
 717:main.c        **** 	return len;
 718:main.c        **** }
 1097              		.loc 1 718 0
 1098 0026 3846     		mov	r0, r7
 1099 0028 F8BD     		pop	{r3, r4, r5, r6, r7, pc}
 1100              		.cfi_endproc
 1101              	.LFE64:
 1102              		.size	_write, .-_write
 1103 002a 00BF     		.section	.text._read,"ax",%progbits
 1104              		.align	2
 1105              		.global	_read
 1106              		.thumb
 1107              		.thumb_func
 1108              		.type	_read, %function
 1109              	_read:
 1110              	.LFB65:
 719:main.c        **** 
 720:main.c        **** int _read (int file, char *ptr, int count)
 721:main.c        **** {
 1111              		.loc 1 721 0
 1112              		.cfi_startproc
 1113              		@ args = 0, pretend = 0, frame = 0
 1114              		@ frame_needed = 0, uses_anonymous_args = 0
 1115              	.LVL167:
 1116 0000 F8B5     		push	{r3, r4, r5, r6, r7, lr}
 1117              		.cfi_def_cfa_offset 24
 1118              		.cfi_offset 3, -24
 1119              		.cfi_offset 4, -20
 1120              		.cfi_offset 5, -16
 1121              		.cfi_offset 6, -12
 1122              		.cfi_offset 7, -8
 1123              		.cfi_offset 14, -4
 1124 0002 0F46     		mov	r7, r1
 1125 0004 1446     		mov	r4, r2
 1126              	.LVL168:
 722:main.c        ****     int chs = 0;
 1127              		.loc 1 722 0
 1128 0006 0026     		movs	r6, #0
 723:main.c        ****     char ch;
 724:main.c        ****  
 725:main.c        ****     (void)file; /* Parameter is not used, suppress unused argument warning */
 726:main.c        ****     while(count > 0) {
 1129              		.loc 1 726 0
 1130 0008 12E0     		b	.L107
 1131              	.LVL169:
 1132              	.L110:
 727:main.c        ****         ch = UART_1_GetChar();
 1133              		.loc 1 727 0
 1134 000a FFF7FEFF 		bl	UART_1_GetChar
 1135              	.LVL170:
 728:main.c        ****         if(ch != 0) {
ARM GAS  C:\Users\TRIPHE~1\AppData\Local\Temp\ccmugB4z.s 			page 34


 1136              		.loc 1 728 0
 1137 000e 0546     		mov	r5, r0
 1138 0010 70B1     		cbz	r0, .L107
 729:main.c        ****             UART_1_PutChar(ch);
 1139              		.loc 1 729 0
 1140 0012 FFF7FEFF 		bl	UART_1_PutChar
 1141              	.LVL171:
 730:main.c        ****             chs++;
 1142              		.loc 1 730 0
 1143 0016 0136     		adds	r6, r6, #1
 1144              	.LVL172:
 731:main.c        ****             if(ch == '\r') {
 1145              		.loc 1 731 0
 1146 0018 0D2D     		cmp	r5, #13
 1147 001a 03D1     		bne	.L108
 1148              	.LVL173:
 732:main.c        ****                 ch = '\n';
 733:main.c        ****                 UART_1_PutChar(ch);
 1149              		.loc 1 733 0
 1150 001c 0A20     		movs	r0, #10
 1151 001e FFF7FEFF 		bl	UART_1_PutChar
 1152              	.LVL174:
 732:main.c        ****                 ch = '\n';
 1153              		.loc 1 732 0
 1154 0022 0A25     		movs	r5, #10
 1155              	.LVL175:
 1156              	.L108:
 734:main.c        ****             }
 735:main.c        ****             *ptr++ = ch;
 1157              		.loc 1 735 0
 1158 0024 7B1C     		adds	r3, r7, #1
 1159              	.LVL176:
 1160 0026 3D70     		strb	r5, [r7]
 736:main.c        ****             count--;
 1161              		.loc 1 736 0
 1162 0028 013C     		subs	r4, r4, #1
 1163              	.LVL177:
 737:main.c        ****             if(ch == '\n') break;
 1164              		.loc 1 737 0
 1165 002a 0A2D     		cmp	r5, #10
 1166 002c 02D0     		beq	.L109
 735:main.c        ****             count--;
 1167              		.loc 1 735 0
 1168 002e 1F46     		mov	r7, r3
 1169              	.LVL178:
 1170              	.L107:
 726:main.c        ****         ch = UART_1_GetChar();
 1171              		.loc 1 726 0
 1172 0030 002C     		cmp	r4, #0
 1173 0032 EADC     		bgt	.L110
 1174              	.LVL179:
 1175              	.L109:
 738:main.c        ****         }
 739:main.c        ****     }
 740:main.c        ****     return chs;
 741:main.c        **** }
 1176              		.loc 1 741 0
ARM GAS  C:\Users\TRIPHE~1\AppData\Local\Temp\ccmugB4z.s 			page 35


 1177 0034 3046     		mov	r0, r6
 1178 0036 F8BD     		pop	{r3, r4, r5, r6, r7, pc}
 1179              		.cfi_endproc
 1180              	.LFE65:
 1181              		.size	_read, .-_read
 1182              		.section	.rodata
 1183              		.align	2
 1184              		.set	.LANCHOR0,. + 0
 1185              	.LC0:
 1186 0000 C05D0000 		.word	24000
 1187 0004 C05D0000 		.word	24000
 1188 0008 C05D0000 		.word	24000
 1189 000c C05D0000 		.word	24000
 1190              		.section	.rodata.str1.4,"aMS",%progbits,1
 1191              		.align	2
 1192              	.LC1:
 1193 0000 25642025 		.ascii	"%d %d %d %d\012\000"
 1193      64202564 
 1193      2025640A 
 1193      00
 1194 000d 000000   		.space	3
 1195              	.LC2:
 1196 0010 5475726E 		.ascii	"Turning left\000"
 1196      696E6720 
 1196      6C656674 
 1196      00
 1197 001d 000000   		.space	3
 1198              	.LC3:
 1199 0020 5475726E 		.ascii	"Turning right\000"
 1199      696E6720 
 1199      72696768 
 1199      7400
 1200 002e 0000     		.text
 1201              	.Letext0:
 1202              		.file 2 "c:\\program files (x86)\\cypress\\psoc creator\\4.0\\psoc creator\\import\\gnu\\arm\\4.9.
 1203              		.file 3 "c:\\program files (x86)\\cypress\\psoc creator\\4.0\\psoc creator\\import\\gnu\\arm\\4.9.
 1204              		.file 4 "Generated_Source\\PSoC5/cytypes.h"
 1205              		.file 5 ".\\ZumoLibrary/Reflectance.h"
 1206              		.file 6 "Generated_Source\\PSoC5/UART_1.h"
 1207              		.file 7 "Generated_Source\\PSoC5/sensor_isr.h"
 1208              		.file 8 "Generated_Source\\PSoC5/IR_led.h"
 1209              		.file 9 "Generated_Source\\PSoC5/ADC_Battery.h"
 1210              		.file 10 "Generated_Source\\PSoC5/CyLib.h"
 1211              		.file 11 "Generated_Source\\PSoC5/BatteryLed.h"
 1212              		.file 12 ".\\ZumoLibrary/Ultra.h"
 1213              		.file 13 ".\\ZumoLibrary/Motor.h"
 1214              		.file 14 ".\\ZumoLibrary/IR.h"
 1215              		.file 15 "c:\\program files (x86)\\cypress\\psoc creator\\4.0\\psoc creator\\import\\gnu\\arm\\4.9
 1216              		.file 16 ".\\ZumoLibrary/Beep.h"
 1217              		.file 17 "Generated_Source\\PSoC5/core_cm3.h"
 1218              		.file 18 "<built-in>"