ARM GAS  C:\Users\TRIPHE~1\AppData\Local\Temp\ccgsuSzl.s 			page 1


   1              		.syntax unified
   2              		.cpu cortex-m3
   3              		.fpu softvfp
   4              		.eabi_attribute 20, 1
   5              		.eabi_attribute 21, 1
   6              		.eabi_attribute 23, 3
   7              		.eabi_attribute 24, 1
   8              		.eabi_attribute 25, 1
   9              		.eabi_attribute 26, 1
  10              		.eabi_attribute 30, 1
  11              		.eabi_attribute 34, 1
  12              		.eabi_attribute 18, 4
  13              		.thumb
  14              		.file	"Motor.c"
  15              		.text
  16              	.Ltext0:
  17              		.cfi_sections	.debug_frame
  18              		.section	.text.motor_start,"ax",%progbits
  19              		.align	2
  20              		.global	motor_start
  21              		.thumb
  22              		.thumb_func
  23              		.type	motor_start, %function
  24              	motor_start:
  25              	.LFB63:
  26              		.file 1 "ZumoLibrary\\Motor.c"
   1:ZumoLibrary/Motor.c **** /**
   2:ZumoLibrary/Motor.c ****  * @file    Motor.c
   3:ZumoLibrary/Motor.c ****  * @brief   Basic methods for operating motor sensor. For more details, please refer to Motor.h fil
   4:ZumoLibrary/Motor.c ****  * @details included in Zumo shield
   5:ZumoLibrary/Motor.c **** */
   6:ZumoLibrary/Motor.c **** #include "Motor.h"
   7:ZumoLibrary/Motor.c **** 
   8:ZumoLibrary/Motor.c **** 
   9:ZumoLibrary/Motor.c **** /**
  10:ZumoLibrary/Motor.c **** * @brief    Starting motor sensors
  11:ZumoLibrary/Motor.c **** * @details  
  12:ZumoLibrary/Motor.c **** */
  13:ZumoLibrary/Motor.c **** void motor_start()
  14:ZumoLibrary/Motor.c **** {
  27              		.loc 1 14 0
  28              		.cfi_startproc
  29              		@ args = 0, pretend = 0, frame = 0
  30              		@ frame_needed = 0, uses_anonymous_args = 0
  31 0000 08B5     		push	{r3, lr}
  32              		.cfi_def_cfa_offset 8
  33              		.cfi_offset 3, -8
  34              		.cfi_offset 14, -4
  15:ZumoLibrary/Motor.c ****     PWM_Start();
  35              		.loc 1 15 0
  36 0002 FFF7FEFF 		bl	PWM_Start
  37              	.LVL0:
  38 0006 08BD     		pop	{r3, pc}
  39              		.cfi_endproc
  40              	.LFE63:
  41              		.size	motor_start, .-motor_start
  42              		.section	.text.motor_stop,"ax",%progbits
ARM GAS  C:\Users\TRIPHE~1\AppData\Local\Temp\ccgsuSzl.s 			page 2


  43              		.align	2
  44              		.global	motor_stop
  45              		.thumb
  46              		.thumb_func
  47              		.type	motor_stop, %function
  48              	motor_stop:
  49              	.LFB64:
  16:ZumoLibrary/Motor.c **** }
  17:ZumoLibrary/Motor.c **** 
  18:ZumoLibrary/Motor.c **** 
  19:ZumoLibrary/Motor.c **** /**
  20:ZumoLibrary/Motor.c **** * @brief    Stopping motor sensors
  21:ZumoLibrary/Motor.c **** * @details
  22:ZumoLibrary/Motor.c **** */
  23:ZumoLibrary/Motor.c **** void motor_stop()
  24:ZumoLibrary/Motor.c **** {
  50              		.loc 1 24 0
  51              		.cfi_startproc
  52              		@ args = 0, pretend = 0, frame = 0
  53              		@ frame_needed = 0, uses_anonymous_args = 0
  54 0000 08B5     		push	{r3, lr}
  55              		.cfi_def_cfa_offset 8
  56              		.cfi_offset 3, -8
  57              		.cfi_offset 14, -4
  25:ZumoLibrary/Motor.c ****     PWM_Stop();
  58              		.loc 1 25 0
  59 0002 FFF7FEFF 		bl	PWM_Stop
  60              	.LVL1:
  61 0006 08BD     		pop	{r3, pc}
  62              		.cfi_endproc
  63              	.LFE64:
  64              		.size	motor_stop, .-motor_stop
  65              		.section	.text.motor_forward,"ax",%progbits
  66              		.align	2
  67              		.global	motor_forward
  68              		.thumb
  69              		.thumb_func
  70              		.type	motor_forward, %function
  71              	motor_forward:
  72              	.LFB65:
  26:ZumoLibrary/Motor.c **** }
  27:ZumoLibrary/Motor.c **** 
  28:ZumoLibrary/Motor.c **** 
  29:ZumoLibrary/Motor.c **** /**
  30:ZumoLibrary/Motor.c **** * @brief    Moving motors forward
  31:ZumoLibrary/Motor.c **** * @details  giveing same speed to each side of PWM to make motors go forward
  32:ZumoLibrary/Motor.c **** * @param    uint8 speed : speed value
  33:ZumoLibrary/Motor.c **** * @param    uint32 delay : delay time
  34:ZumoLibrary/Motor.c **** */
  35:ZumoLibrary/Motor.c **** void motor_forward(uint8 speed,uint32 delay)
  36:ZumoLibrary/Motor.c **** {
  73              		.loc 1 36 0
  74              		.cfi_startproc
  75              		@ args = 0, pretend = 0, frame = 0
  76              		@ frame_needed = 0, uses_anonymous_args = 0
  77              	.LVL2:
  78 0000 38B5     		push	{r3, r4, r5, lr}
ARM GAS  C:\Users\TRIPHE~1\AppData\Local\Temp\ccgsuSzl.s 			page 3


  79              		.cfi_def_cfa_offset 16
  80              		.cfi_offset 3, -16
  81              		.cfi_offset 4, -12
  82              		.cfi_offset 5, -8
  83              		.cfi_offset 14, -4
  84 0002 0446     		mov	r4, r0
  85 0004 0D46     		mov	r5, r1
  37:ZumoLibrary/Motor.c ****     MotorDirLeft_Write(0);      // set LeftMotor forward mode
  86              		.loc 1 37 0
  87 0006 0020     		movs	r0, #0
  88              	.LVL3:
  89 0008 FFF7FEFF 		bl	MotorDirLeft_Write
  90              	.LVL4:
  38:ZumoLibrary/Motor.c ****     MotorDirRight_Write(0);     // set RightMotor forward mode
  91              		.loc 1 38 0
  92 000c 0020     		movs	r0, #0
  93 000e FFF7FEFF 		bl	MotorDirRight_Write
  94              	.LVL5:
  39:ZumoLibrary/Motor.c ****     PWM_WriteCompare1(speed); 
  95              		.loc 1 39 0
  96 0012 2046     		mov	r0, r4
  97 0014 FFF7FEFF 		bl	PWM_WriteCompare1
  98              	.LVL6:
  40:ZumoLibrary/Motor.c ****     PWM_WriteCompare2(speed); 
  99              		.loc 1 40 0
 100 0018 2046     		mov	r0, r4
 101 001a FFF7FEFF 		bl	PWM_WriteCompare2
 102              	.LVL7:
  41:ZumoLibrary/Motor.c ****     CyDelay(delay);
 103              		.loc 1 41 0
 104 001e 2846     		mov	r0, r5
 105 0020 FFF7FEFF 		bl	CyDelay
 106              	.LVL8:
 107 0024 38BD     		pop	{r3, r4, r5, pc}
 108              		.cfi_endproc
 109              	.LFE65:
 110              		.size	motor_forward, .-motor_forward
 111 0026 00BF     		.section	.text.motor_turn,"ax",%progbits
 112              		.align	2
 113              		.global	motor_turn
 114              		.thumb
 115              		.thumb_func
 116              		.type	motor_turn, %function
 117              	motor_turn:
 118              	.LFB66:
  42:ZumoLibrary/Motor.c **** }
  43:ZumoLibrary/Motor.c **** 
  44:ZumoLibrary/Motor.c **** 
  45:ZumoLibrary/Motor.c **** /**
  46:ZumoLibrary/Motor.c **** * @brief    Moving motors to make a turn 
  47:ZumoLibrary/Motor.c **** * @details  moving left when l_speed < r_speed or moving right when l_speed > r_speed
  48:ZumoLibrary/Motor.c **** * @param    uint8 l_speed : left motor speed value
  49:ZumoLibrary/Motor.c **** * @param    uint8 r_speed : right motor speed value
  50:ZumoLibrary/Motor.c **** * @param    uint32 delay : delay time
  51:ZumoLibrary/Motor.c **** */
  52:ZumoLibrary/Motor.c **** void motor_turn(int l_speed, int r_speed, uint32 delay)
  53:ZumoLibrary/Motor.c **** {
ARM GAS  C:\Users\TRIPHE~1\AppData\Local\Temp\ccgsuSzl.s 			page 4


 119              		.loc 1 53 0
 120              		.cfi_startproc
 121              		@ args = 0, pretend = 0, frame = 0
 122              		@ frame_needed = 0, uses_anonymous_args = 0
 123              	.LVL9:
 124 0000 70B5     		push	{r4, r5, r6, lr}
 125              		.cfi_def_cfa_offset 16
 126              		.cfi_offset 4, -16
 127              		.cfi_offset 5, -12
 128              		.cfi_offset 6, -8
 129              		.cfi_offset 14, -4
 130 0002 0C46     		mov	r4, r1
 131 0004 1646     		mov	r6, r2
  54:ZumoLibrary/Motor.c ****     if (l_speed >= 0) MotorDirLeft_Write(0); else {MotorDirLeft_Write(1); l_speed = -l_speed;}
 132              		.loc 1 54 0
 133 0006 051E     		subs	r5, r0, #0
 134 0008 03DB     		blt	.L8
 135              		.loc 1 54 0 is_stmt 0 discriminator 1
 136 000a 0020     		movs	r0, #0
 137              	.LVL10:
 138 000c FFF7FEFF 		bl	MotorDirLeft_Write
 139              	.LVL11:
 140 0010 03E0     		b	.L9
 141              	.LVL12:
 142              	.L8:
 143              		.loc 1 54 0 discriminator 2
 144 0012 0120     		movs	r0, #1
 145              	.LVL13:
 146 0014 FFF7FEFF 		bl	MotorDirLeft_Write
 147              	.LVL14:
 148 0018 6D42     		negs	r5, r5
 149              	.LVL15:
 150              	.L9:
  55:ZumoLibrary/Motor.c ****     if (r_speed >= 0) MotorDirRight_Write(0); else {MotorDirRight_Write(1); r_speed = -r_speed;}
 151              		.loc 1 55 0 is_stmt 1
 152 001a 002C     		cmp	r4, #0
 153 001c 03DB     		blt	.L10
 154              		.loc 1 55 0 is_stmt 0 discriminator 1
 155 001e 0020     		movs	r0, #0
 156 0020 FFF7FEFF 		bl	MotorDirRight_Write
 157              	.LVL16:
 158 0024 03E0     		b	.L11
 159              	.L10:
 160              		.loc 1 55 0 discriminator 2
 161 0026 0120     		movs	r0, #1
 162 0028 FFF7FEFF 		bl	MotorDirRight_Write
 163              	.LVL17:
 164 002c 6442     		negs	r4, r4
 165              	.LVL18:
 166              	.L11:
  56:ZumoLibrary/Motor.c ****     PWM_WriteCompare1(l_speed); 
 167              		.loc 1 56 0 is_stmt 1
 168 002e E8B2     		uxtb	r0, r5
 169 0030 FFF7FEFF 		bl	PWM_WriteCompare1
 170              	.LVL19:
  57:ZumoLibrary/Motor.c ****     PWM_WriteCompare2(r_speed); 
 171              		.loc 1 57 0
ARM GAS  C:\Users\TRIPHE~1\AppData\Local\Temp\ccgsuSzl.s 			page 5


 172 0034 E0B2     		uxtb	r0, r4
 173 0036 FFF7FEFF 		bl	PWM_WriteCompare2
 174              	.LVL20:
  58:ZumoLibrary/Motor.c ****     CyDelay(delay);
 175              		.loc 1 58 0
 176 003a 3046     		mov	r0, r6
 177 003c FFF7FEFF 		bl	CyDelay
 178              	.LVL21:
 179 0040 70BD     		pop	{r4, r5, r6, pc}
 180              		.cfi_endproc
 181              	.LFE66:
 182              		.size	motor_turn, .-motor_turn
 183              		.section	.text.motor_backward,"ax",%progbits
 184              		.align	2
 185              		.global	motor_backward
 186              		.thumb
 187              		.thumb_func
 188              		.type	motor_backward, %function
 189              	motor_backward:
 190              	.LFB67:
  59:ZumoLibrary/Motor.c **** }
  60:ZumoLibrary/Motor.c **** 
  61:ZumoLibrary/Motor.c **** 
  62:ZumoLibrary/Motor.c **** /**
  63:ZumoLibrary/Motor.c **** * @brief    Moving motors backward
  64:ZumoLibrary/Motor.c **** * @details  setting backward mode to each motors and gives same speed to each side of PWM
  65:ZumoLibrary/Motor.c **** * @param    uint8 speed : speed value
  66:ZumoLibrary/Motor.c **** * @param    uint32 delay : delay time
  67:ZumoLibrary/Motor.c **** */
  68:ZumoLibrary/Motor.c **** void motor_backward(uint8 speed,uint32 delay)
  69:ZumoLibrary/Motor.c **** {
 191              		.loc 1 69 0
 192              		.cfi_startproc
 193              		@ args = 0, pretend = 0, frame = 0
 194              		@ frame_needed = 0, uses_anonymous_args = 0
 195              	.LVL22:
 196 0000 38B5     		push	{r3, r4, r5, lr}
 197              		.cfi_def_cfa_offset 16
 198              		.cfi_offset 3, -16
 199              		.cfi_offset 4, -12
 200              		.cfi_offset 5, -8
 201              		.cfi_offset 14, -4
 202 0002 0446     		mov	r4, r0
 203 0004 0D46     		mov	r5, r1
  70:ZumoLibrary/Motor.c ****     MotorDirLeft_Write(1);      // set LeftMotor backward mode
 204              		.loc 1 70 0
 205 0006 0120     		movs	r0, #1
 206              	.LVL23:
 207 0008 FFF7FEFF 		bl	MotorDirLeft_Write
 208              	.LVL24:
  71:ZumoLibrary/Motor.c ****     MotorDirRight_Write(1);     // set RightMotor backward mode
 209              		.loc 1 71 0
 210 000c 0120     		movs	r0, #1
 211 000e FFF7FEFF 		bl	MotorDirRight_Write
 212              	.LVL25:
  72:ZumoLibrary/Motor.c ****     PWM_WriteCompare1(speed); 
 213              		.loc 1 72 0
ARM GAS  C:\Users\TRIPHE~1\AppData\Local\Temp\ccgsuSzl.s 			page 6


 214 0012 2046     		mov	r0, r4
 215 0014 FFF7FEFF 		bl	PWM_WriteCompare1
 216              	.LVL26:
  73:ZumoLibrary/Motor.c ****     PWM_WriteCompare2(speed); 
 217              		.loc 1 73 0
 218 0018 2046     		mov	r0, r4
 219 001a FFF7FEFF 		bl	PWM_WriteCompare2
 220              	.LVL27:
  74:ZumoLibrary/Motor.c ****     CyDelay(delay);
 221              		.loc 1 74 0
 222 001e 2846     		mov	r0, r5
 223 0020 FFF7FEFF 		bl	CyDelay
 224              	.LVL28:
 225 0024 38BD     		pop	{r3, r4, r5, pc}
 226              		.cfi_endproc
 227              	.LFE67:
 228              		.size	motor_backward, .-motor_backward
 229 0026 00BF     		.section	.text.motor_static_turn_r,"ax",%progbits
 230              		.align	2
 231              		.global	motor_static_turn_r
 232              		.thumb
 233              		.thumb_func
 234              		.type	motor_static_turn_r, %function
 235              	motor_static_turn_r:
 236              	.LFB68:
  75:ZumoLibrary/Motor.c **** }
  76:ZumoLibrary/Motor.c **** 
  77:ZumoLibrary/Motor.c **** void motor_static_turn_r(uint32 delay) {
 237              		.loc 1 77 0
 238              		.cfi_startproc
 239              		@ args = 0, pretend = 0, frame = 0
 240              		@ frame_needed = 0, uses_anonymous_args = 0
 241              	.LVL29:
 242 0000 10B5     		push	{r4, lr}
 243              		.cfi_def_cfa_offset 8
 244              		.cfi_offset 4, -8
 245              		.cfi_offset 14, -4
 246 0002 0446     		mov	r4, r0
 247              	.LVL30:
  78:ZumoLibrary/Motor.c ****     uint8 static_speed = 100;
  79:ZumoLibrary/Motor.c ****     MotorDirLeft_Write(0);
 248              		.loc 1 79 0
 249 0004 0020     		movs	r0, #0
 250              	.LVL31:
 251 0006 FFF7FEFF 		bl	MotorDirLeft_Write
 252              	.LVL32:
  80:ZumoLibrary/Motor.c ****     MotorDirRight_Write(1);
 253              		.loc 1 80 0
 254 000a 0120     		movs	r0, #1
 255 000c FFF7FEFF 		bl	MotorDirRight_Write
 256              	.LVL33:
  81:ZumoLibrary/Motor.c ****     PWM_WriteCompare1(static_speed);
 257              		.loc 1 81 0
 258 0010 6420     		movs	r0, #100
 259 0012 FFF7FEFF 		bl	PWM_WriteCompare1
 260              	.LVL34:
  82:ZumoLibrary/Motor.c ****     PWM_WriteCompare2(static_speed);
ARM GAS  C:\Users\TRIPHE~1\AppData\Local\Temp\ccgsuSzl.s 			page 7


 261              		.loc 1 82 0
 262 0016 6420     		movs	r0, #100
 263 0018 FFF7FEFF 		bl	PWM_WriteCompare2
 264              	.LVL35:
  83:ZumoLibrary/Motor.c ****     CyDelay(delay);
 265              		.loc 1 83 0
 266 001c 2046     		mov	r0, r4
 267 001e FFF7FEFF 		bl	CyDelay
 268              	.LVL36:
 269 0022 10BD     		pop	{r4, pc}
 270              		.cfi_endproc
 271              	.LFE68:
 272              		.size	motor_static_turn_r, .-motor_static_turn_r
 273              		.section	.text.motor_static_turn_l,"ax",%progbits
 274              		.align	2
 275              		.global	motor_static_turn_l
 276              		.thumb
 277              		.thumb_func
 278              		.type	motor_static_turn_l, %function
 279              	motor_static_turn_l:
 280              	.LFB69:
  84:ZumoLibrary/Motor.c **** }
  85:ZumoLibrary/Motor.c **** 
  86:ZumoLibrary/Motor.c **** void motor_static_turn_l(uint32 delay) {
 281              		.loc 1 86 0
 282              		.cfi_startproc
 283              		@ args = 0, pretend = 0, frame = 0
 284              		@ frame_needed = 0, uses_anonymous_args = 0
 285              	.LVL37:
 286 0000 10B5     		push	{r4, lr}
 287              		.cfi_def_cfa_offset 8
 288              		.cfi_offset 4, -8
 289              		.cfi_offset 14, -4
 290 0002 0446     		mov	r4, r0
 291              	.LVL38:
  87:ZumoLibrary/Motor.c ****     uint8 static_speed = 100;
  88:ZumoLibrary/Motor.c ****     MotorDirLeft_Write(1);
 292              		.loc 1 88 0
 293 0004 0120     		movs	r0, #1
 294              	.LVL39:
 295 0006 FFF7FEFF 		bl	MotorDirLeft_Write
 296              	.LVL40:
  89:ZumoLibrary/Motor.c ****     MotorDirRight_Write(0);
 297              		.loc 1 89 0
 298 000a 0020     		movs	r0, #0
 299 000c FFF7FEFF 		bl	MotorDirRight_Write
 300              	.LVL41:
  90:ZumoLibrary/Motor.c ****     PWM_WriteCompare1(static_speed);
 301              		.loc 1 90 0
 302 0010 6420     		movs	r0, #100
 303 0012 FFF7FEFF 		bl	PWM_WriteCompare1
 304              	.LVL42:
  91:ZumoLibrary/Motor.c ****     PWM_WriteCompare2(static_speed);
 305              		.loc 1 91 0
 306 0016 6420     		movs	r0, #100
 307 0018 FFF7FEFF 		bl	PWM_WriteCompare2
 308              	.LVL43:
ARM GAS  C:\Users\TRIPHE~1\AppData\Local\Temp\ccgsuSzl.s 			page 8


  92:ZumoLibrary/Motor.c ****     CyDelay(delay);
 309              		.loc 1 92 0
 310 001c 2046     		mov	r0, r4
 311 001e FFF7FEFF 		bl	CyDelay
 312              	.LVL44:
 313 0022 10BD     		pop	{r4, pc}
 314              		.cfi_endproc
 315              	.LFE69:
 316              		.size	motor_static_turn_l, .-motor_static_turn_l
 317              		.section	.text.motor_forward_distance,"ax",%progbits
 318              		.align	2
 319              		.global	motor_forward_distance
 320              		.thumb
 321              		.thumb_func
 322              		.type	motor_forward_distance, %function
 323              	motor_forward_distance:
 324              	.LFB70:
  93:ZumoLibrary/Motor.c **** }
  94:ZumoLibrary/Motor.c **** 
  95:ZumoLibrary/Motor.c **** void motor_forward_distance(uint32 delay)
  96:ZumoLibrary/Motor.c **** {
 325              		.loc 1 96 0
 326              		.cfi_startproc
 327              		@ args = 0, pretend = 0, frame = 0
 328              		@ frame_needed = 0, uses_anonymous_args = 0
 329              	.LVL45:
 330 0000 10B5     		push	{r4, lr}
 331              		.cfi_def_cfa_offset 8
 332              		.cfi_offset 4, -8
 333              		.cfi_offset 14, -4
 334 0002 0446     		mov	r4, r0
  97:ZumoLibrary/Motor.c ****     MotorDirLeft_Write(0);      // set LeftMotor forward mode
 335              		.loc 1 97 0
 336 0004 0020     		movs	r0, #0
 337              	.LVL46:
 338 0006 FFF7FEFF 		bl	MotorDirLeft_Write
 339              	.LVL47:
  98:ZumoLibrary/Motor.c ****     MotorDirRight_Write(0);     // set RightMotor forward mode
 340              		.loc 1 98 0
 341 000a 0020     		movs	r0, #0
 342 000c FFF7FEFF 		bl	MotorDirRight_Write
 343              	.LVL48:
  99:ZumoLibrary/Motor.c ****     PWM_WriteCompare1(200); 
 344              		.loc 1 99 0
 345 0010 C820     		movs	r0, #200
 346 0012 FFF7FEFF 		bl	PWM_WriteCompare1
 347              	.LVL49:
 100:ZumoLibrary/Motor.c ****     PWM_WriteCompare2(200); 
 348              		.loc 1 100 0
 349 0016 C820     		movs	r0, #200
 350 0018 FFF7FEFF 		bl	PWM_WriteCompare2
 351              	.LVL50:
 101:ZumoLibrary/Motor.c ****     CyDelay(delay*1000/48);
 352              		.loc 1 101 0
 353 001c 4FF47A70 		mov	r0, #1000
 354 0020 00FB04F0 		mul	r0, r0, r4
 355 0024 034B     		ldr	r3, .L21
ARM GAS  C:\Users\TRIPHE~1\AppData\Local\Temp\ccgsuSzl.s 			page 9


 356 0026 A3FB0030 		umull	r3, r0, r3, r0
 357 002a 4009     		lsrs	r0, r0, #5
 358 002c FFF7FEFF 		bl	CyDelay
 359              	.LVL51:
 360 0030 10BD     		pop	{r4, pc}
 361              	.LVL52:
 362              	.L22:
 363 0032 00BF     		.align	2
 364              	.L21:
 365 0034 ABAAAAAA 		.word	-1431655765
 366              		.cfi_endproc
 367              	.LFE70:
 368              		.size	motor_forward_distance, .-motor_forward_distance
 369              		.text
 370              	.Letext0:
 371              		.file 2 "c:\\program files (x86)\\cypress\\psoc creator\\4.0\\psoc creator\\import\\gnu\\arm\\4.9.
 372              		.file 3 "c:\\program files (x86)\\cypress\\psoc creator\\4.0\\psoc creator\\import\\gnu\\arm\\4.9.
 373              		.file 4 "Generated_Source\\PSoC5/cytypes.h"
 374              		.file 5 "Generated_Source\\PSoC5/PWM.h"
 375              		.file 6 "Generated_Source\\PSoC5/MotorDirLeft.h"
 376              		.file 7 "Generated_Source\\PSoC5/MotorDirRight.h"
 377              		.file 8 "Generated_Source\\PSoC5/core_cm3.h"
 378              		.file 9 "Generated_Source\\PSoC5/CyLib.h"